(lp0
S'      0.17,      0.51,      0.54,      0.56,      0.59,      0.51,      0.47,      1.01,      0.00,      0.00,2000,\n      0.00,      0.40,      0.57,      0.28,      0.67,      0.38,      0.63,      1.11,      0.00,      0.00,2000,\n      0.00,      0.67,      0.63,      0.65,      0.63,      0.33,      0.33,      1.11,      0.00,      0.00,2000,\n      0.00,      0.00,      0.49,      0.37,      0.46,      0.59,      0.51,      1.03,      0.00,      0.00,2000,\n      0.24,      0.57,      0.42,      0.40,      0.45,      0.37,      0.54,      1.04,      0.00,      0.00,2000,\n      0.75,      0.00,      0.58,      0.47,      0.58,      0.58,      0.50,      1.02,      0.00,      0.00,2000,\n      0.44,      0.00,      0.43,      0.53,      0.55,      0.59,      0.53,      1.02,      0.00,      0.00,2000,\n      0.00,      0.16,      0.45,      0.63,      0.39,      0.62,      0.45,      1.05,      0.00,      0.00,2000,\n      0.52,      0.45,      0.48,      0.51,      0.45,      0.28,      0.47,      1.05,      0.00,      0.00,2000,\n      0.00,      0.79,      0.42,      0.53,      0.40,      0.45,      0.56,      1.02,      0.00,      0.00,2000,\n      0.01,      0.26,      0.55,      0.53,      0.50,      0.50,      0.50,      1.00,      0.00,      0.00,2000,\n      0.00,      0.27,      0.53,      0.63,      0.48,      0.54,      0.41,      1.03,      0.00,      0.00,2000,\n      0.18,      0.06,      0.66,      0.47,      0.54,      0.64,      0.37,      1.06,      0.00,      0.00,2000,\n      0.06,      0.86,      0.49,      0.52,      0.33,      0.53,      0.48,      1.03,      0.00,      0.00,2000,\n      0.26,      0.00,      0.40,      0.49,      0.49,      0.41,      0.56,      1.02,      0.00,      0.00,2000,\n      0.00,      0.49,      0.52,      0.56,      0.45,      0.45,      0.50,      1.01,      0.00,      0.00,2000,\n      0.77,      0.00,      0.57,      0.58,      0.51,      0.53,      0.67,      1.04,      0.00,      0.00,2000,\n      0.00,      0.40,      0.44,      0.32,      0.38,      0.51,      0.50,      1.05,      0.00,      0.00,2000,\n      0.00,      0.33,      0.49,      0.40,      0.53,      0.56,      0.51,      1.02,      0.00,      0.00,2000,\n      0.84,      0.33,      0.51,      0.40,      0.43,      0.37,      0.43,      1.04,      0.00,      0.00,2000,\n      0.13,      0.53,      0.47,      0.33,      0.48,      0.43,      0.50,      1.04,      0.00,      0.00,2000,\n      0.39,      0.15,      0.18,      0.40,      0.54,      0.63,      0.43,      1.13,      0.00,      0.00,2000,\n      0.07,      0.26,      0.61,      0.88,      0.66,      0.47,      0.43,      1.19,      0.00,      0.00,2000,\n      0.50,      0.86,      0.29,      0.68,      0.56,      0.49,      0.50,      1.08,      0.00,      0.00,2000,\n      0.41,      0.77,      0.56,      0.37,      0.48,      0.44,      0.32,      1.05,      0.00,      0.00,2000,\n      0.10,      0.00,      0.71,      0.55,      0.42,      0.49,      0.40,      1.06,      0.00,      0.00,2000,\n      0.55,      0.00,      0.63,      0.50,      0.55,      0.42,      0.55,      1.03,      0.00,      0.00,2000,\n      0.11,      0.65,      0.47,      0.39,      0.60,      0.44,      0.28,      1.07,      0.00,      0.00,2000,\n      0.49,      0.69,      0.54,      0.70,      0.60,      0.57,      0.48,      1.06,      0.00,      0.00,2000,\n      0.00,      0.25,      0.70,      0.40,      0.34,      0.57,      0.51,      1.08,      0.00,      0.00,2000,\n      0.58,      0.07,      0.50,      0.34,      0.74,      0.48,      0.45,      1.09,      0.00,      0.00,2000,\n      0.10,      0.30,      0.31,      0.61,      0.42,      0.35,      0.35,      1.10,      0.00,      0.00,2000,\n      0.83,      0.00,      0.41,      0.33,      0.50,      0.48,      0.35,      1.06,      0.00,      0.00,2000,\n      0.57,      0.93,      0.48,      0.37,      0.52,      0.39,      0.42,      1.04,      0.00,      0.00,2000,\n      0.37,      0.63,      0.46,      0.53,      0.50,      0.49,      0.43,      1.01,      0.00,      0.00,2000,\n      0.43,      0.27,      0.45,      0.43,      0.45,      0.40,      0.45,      1.02,      0.00,      0.00,2000,\n      0.23,      0.66,      0.62,      0.54,      0.40,      0.29,      0.51,      1.07,      0.00,      0.00,2000,\n      0.00,      0.23,      0.57,      0.46,      0.48,      0.48,      0.50,      1.01,      0.00,      0.00,2000,\n      0.49,      0.74,      0.55,      0.56,      0.47,      0.61,      0.41,      1.03,      0.00,      0.00,2000,\n      0.24,      0.52,      0.56,      0.48,      0.48,      0.45,      0.63,      1.02,      0.00,      0.00,2000,\n      0.52,      0.57,      0.46,      0.58,      0.59,      0.58,      0.53,      1.02,      0.00,      0.00,2000,\n      0.10,      0.56,      0.42,      0.43,      0.66,      0.29,      0.41,      1.09,      0.00,      0.00,2000,\n      0.41,      0.39,      0.62,      0.49,      0.68,      0.50,      0.45,      1.05,      0.00,      0.00,2000,\n      0.11,      0.60,      0.43,      0.62,      0.40,      0.44,      0.38,      1.04,      0.00,      0.00,2000,\n      0.47,      0.02,      0.54,      0.49,      0.42,      0.73,      0.52,      1.06,      0.00,      0.00,2000,\n      0.20,      0.00,      0.51,      0.55,      0.46,      0.52,      0.75,      1.06,      0.00,      0.00,2000,\n      0.34,      0.56,      0.60,      0.54,      0.60,      0.39,      0.55,      1.04,      0.00,      0.00,2000,\n      0.23,      0.61,      0.51,      0.58,      0.61,      0.48,      0.37,      1.04,      0.00,      0.00,2000,\n      0.03,      0.44,      0.67,      0.53,      0.58,      0.65,      0.36,      1.08,      0.00,      0.00,2000,\n      0.30,      0.00,      0.73,      0.51,      0.49,      0.46,      0.62,      1.07,      0.00,      0.00,2000,\n      0.37,      0.35,      0.44,      0.65,      0.66,      0.61,      0.55,      1.07,      0.00,      0.00,2000,\n      0.23,      0.90,      0.40,      0.51,      0.52,      0.40,      0.46,      1.02,      0.00,      0.00,2000,\n      0.16,      0.49,      0.54,      0.67,      0.74,      0.43,      0.39,      1.11,      0.00,      0.00,2000,\n      0.64,      0.29,      0.40,      0.38,      0.49,      0.46,      0.43,      1.03,      0.00,      0.00,2000,\n      0.21,      0.61,      0.52,      0.63,      0.49,      0.51,      0.60,      1.03,      0.00,      0.00,2000,\n      0.40,      0.93,      0.51,      0.54,      0.43,      0.57,      0.61,      1.02,      0.00,      0.00,2000,\n      0.59,      0.18,      0.47,      0.53,      0.37,      0.44,      0.52,      1.02,      0.00,      0.00,2000,\n      0.46,      0.00,      0.56,      0.44,      0.48,      0.38,      0.45,      1.03,      0.00,      0.00,2000,\n      0.44,      0.14,      0.50,      0.58,      0.74,      0.58,      0.42,      1.08,      0.00,      0.00,2000,\n      0.47,      0.00,      0.35,      0.52,      0.52,      0.42,      0.47,      1.03,      0.00,      0.00,2000,\n      0.45,      0.60,      0.52,      0.63,      0.48,      0.52,      0.35,      1.04,      0.00,      0.00,2000,\n      0.47,      0.39,      0.56,      0.45,      0.43,      0.59,      0.44,      1.02,      0.00,      0.00,2000,\n      0.38,      0.00,      0.64,      0.36,      0.43,      0.52,      0.56,      1.05,      0.00,      0.00,2000,\n      0.59,      0.23,      0.49,      0.65,      0.41,      0.39,      0.50,      1.04,      0.00,      0.00,2000,\n      0.32,      0.00,      0.58,      0.33,      0.38,      0.53,      0.54,      1.05,      0.00,      0.00,2000,\n      0.00,      0.57,      0.47,      0.51,      0.49,      0.50,      0.40,      1.01,      0.00,      0.00,2000,\n      0.16,      0.00,      0.55,      0.53,      0.53,      0.65,      0.53,      1.03,      0.00,      0.00,2000,\n      0.00,      0.00,      0.40,      0.26,      0.53,      0.44,      0.68,      1.10,      0.00,      0.00,2000,\n      0.19,      0.16,      0.54,      0.43,      0.60,      0.32,      0.54,      1.05,      0.00,      0.00,2000,\n      0.15,      0.00,      0.50,      0.42,      0.64,      0.45,      0.57,      1.03,      0.00,      0.00,2000,\n      0.71,      0.17,      0.65,      0.34,      0.38,      0.43,      0.45,      1.07,      0.00,      0.00,2000,\n      0.23,      0.18,      0.77,      0.50,      0.50,      0.59,      0.48,      1.08,      0.00,      0.00,2000,\n      0.00,      0.44,      0.61,      0.45,      0.56,      0.29,      0.38,      1.07,      0.00,      0.00,2000,\n      0.06,      0.00,      0.57,      0.65,      0.57,      0.53,      0.43,      1.04,      0.00,      0.00,2000,\n      0.13,      0.05,      0.55,      0.39,      0.65,      0.53,      0.43,      1.04,      0.00,      0.00,2000,\n      0.30,      0.00,      0.58,      0.39,      0.51,      0.55,      0.57,      1.03,      0.00,      0.00,2000,\n      0.00,      0.13,      0.75,      0.36,      0.51,      0.41,      0.52,      1.09,      0.00,      0.00,2000,\n      0.00,      0.74,      0.47,      0.48,      0.26,      0.60,      0.48,      1.07,      0.00,      0.00,2000,\n      0.00,      0.34,      0.40,      0.50,      0.64,      0.59,      0.40,      1.05,      0.00,      0.00,2000,\n      0.44,      0.35,      0.54,      0.50,      0.58,      0.26,      0.47,      1.07,      0.00,      0.00,2000,\n      0.85,      0.21,      0.43,      0.66,      0.41,      0.32,      0.47,      1.07,      0.00,      0.00,2000,\n      0.00,      0.00,      0.43,      0.33,      0.35,      0.56,      0.35,      1.08,      0.00,      0.00,2000,\n      0.67,      0.95,      0.46,      0.52,      0.37,      0.72,      0.44,      1.07,      0.01,      0.00,2000,\n      0.00,      0.00,      0.56,      0.48,      0.65,      0.54,      0.40,      1.04,      0.00,      0.00,2000,\n      0.07,      0.21,      0.52,      0.34,      0.60,      0.42,      0.42,      1.05,      0.00,      0.00,2000,\n      0.50,      0.33,      0.54,      0.52,      0.51,      0.41,      0.50,      1.01,      0.00,      0.00,2000,\n      0.00,      0.30,      0.50,      0.46,      0.39,      0.46,      0.48,      1.01,      0.00,      0.00,2000,\n      0.00,      0.26,      0.44,      0.56,      0.57,      0.54,      0.50,      1.01,      0.00,      0.00,2000,\n      0.26,      0.27,      0.60,      0.63,      0.44,      0.56,      0.56,      1.04,      0.00,      0.00,2000,\n      0.17,      0.48,      0.47,      0.46,      0.32,      0.51,      0.59,      1.04,      0.00,      0.00,2000,\n      0.37,      0.28,      0.45,      0.64,      0.56,      0.61,      0.68,      1.07,      0.00,      0.00,2000,\n      0.00,      0.67,      0.59,      0.43,      0.57,      0.50,      0.54,      1.02,      0.00,      0.00,2000,\n      0.03,      0.63,      0.60,      0.41,      0.43,      0.56,      0.50,      1.03,      0.00,      0.00,2000,\n      0.69,      0.69,      0.51,      0.30,      0.43,      0.02,      0.44,      1.28,      0.00,      0.00,2000,\n      0.86,      0.00,      0.69,      0.45,      0.47,      0.46,      0.28,      1.09,      0.00,      0.00,2000,\n      0.00,      0.88,      0.47,      0.56,      0.61,      0.54,      0.47,      1.02,      0.00,      0.00,2000,\n      0.00,      0.41,      0.68,      0.59,      0.48,      0.65,      0.31,      1.10,      0.00,      0.00,2000,\n      0.06,      0.21,      0.52,      0.40,      0.52,      0.52,      0.50,      1.01,      0.00,      0.00,2000,\n      0.64,      0.59,      0.33,      0.40,      0.54,      0.43,      0.66,      1.07,      0.00,      0.00,2000,\n      0.42,      0.81,      0.53,      0.45,      0.44,      0.56,      0.47,      1.01,      0.00,      0.00,2000,\n'
p1
aS'96.0%,100.0%,100.0%,2000,        1.01,        0.00,        0.00,\n97.0%,100.0%,100.0%,2000,        1.11,        0.00,        0.00,\n97.0%,100.0%,100.0%,2000,        1.11,        0.00,        0.00,\n96.1%,100.0%,100.0%,2000,        1.03,        0.00,        0.00,\n96.2%,100.0%,100.0%,2000,        1.04,        0.00,        0.00,\n96.1%,100.0%,100.0%,2000,        1.02,        0.00,        0.00,\n96.0%,100.0%,100.0%,2000,        1.02,        0.00,        0.00,\n96.3%,100.0%,100.0%,2000,        1.05,        0.00,        0.00,\n96.4%,100.0%,100.0%,2000,        1.05,        0.00,        0.00,\n96.1%,100.0%,100.0%,2000,        1.02,        0.00,        0.00,\n95.9%,100.0%,100.0%,2000,        1.00,        0.00,        0.00,\n96.1%,100.0%,100.0%,2000,        1.03,        0.00,        0.00,\n96.5%,100.0%,100.0%,2000,        1.06,        0.00,        0.00,\n96.2%,100.0%,100.0%,2000,        1.03,        0.00,        0.00,\n96.1%,100.0%,100.0%,2000,        1.02,        0.00,        0.00,\n95.9%,100.0%,100.0%,2000,        1.01,        0.00,        0.00,\n96.2%,100.0%,100.0%,2000,        1.04,        0.00,        0.00,\n96.3%,100.0%,100.0%,2000,        1.05,        0.00,        0.00,\n96.0%,100.0%,100.0%,2000,        1.02,        0.00,        0.00,\n96.2%,100.0%,100.0%,2000,        1.04,        0.00,        0.00,\n96.2%,100.0%,100.0%,2000,        1.04,        0.00,        0.00,\n97.2%,100.0%,100.0%,2000,        1.13,        0.00,        0.00,\n97.7%,100.0%,100.0%,2000,        1.19,        0.00,        0.00,\n96.7%,100.0%,100.0%,2000,        1.08,        0.00,        0.00,\n96.4%,100.0%,100.0%,2000,        1.05,        0.00,        0.00,\n96.5%,100.0%,100.0%,2000,        1.06,        0.00,        0.00,\n96.1%,100.0%,100.0%,2000,        1.03,        0.00,        0.00,\n96.6%,100.0%,100.0%,2000,        1.07,        0.00,        0.00,\n96.4%,100.0%,100.0%,2000,        1.06,        0.00,        0.00,\n96.6%,100.0%,100.0%,2000,        1.08,        0.00,        0.00,\n96.7%,100.0%,100.0%,2000,        1.09,        0.00,        0.00,\n96.8%,100.0%,100.0%,2000,        1.10,        0.00,        0.00,\n96.4%,100.0%,100.0%,2000,        1.06,        0.00,        0.00,\n96.2%,100.0%,100.0%,2000,        1.04,        0.00,        0.00,\n95.9%,100.0%,100.0%,2000,        1.01,        0.00,        0.00,\n96.1%,100.0%,100.0%,2000,        1.02,        0.00,        0.00,\n96.6%,100.0%,100.0%,2000,        1.07,        0.00,        0.00,\n95.9%,100.0%,100.0%,2000,        1.01,        0.00,        0.00,\n96.1%,100.0%,100.0%,2000,        1.03,        0.00,        0.00,\n96.1%,100.0%,100.0%,2000,        1.02,        0.00,        0.00,\n96.1%,100.0%,100.0%,2000,        1.02,        0.00,        0.00,\n96.7%,100.0%,100.0%,2000,        1.09,        0.00,        0.00,\n96.3%,100.0%,100.0%,2000,        1.05,        0.00,        0.00,\n96.3%,100.0%,100.0%,2000,        1.04,        0.00,        0.00,\n96.5%,100.0%,100.0%,2000,        1.06,        0.00,        0.00,\n96.5%,100.0%,100.0%,2000,        1.06,        0.00,        0.00,\n96.2%,100.0%,100.0%,2000,        1.04,        0.00,        0.00,\n96.2%,100.0%,100.0%,2000,        1.04,        0.00,        0.00,\n96.6%,100.0%,100.0%,2000,        1.08,        0.00,        0.00,\n96.5%,100.0%,100.0%,2000,        1.07,        0.00,        0.00,\n96.5%,100.0%,100.0%,2000,        1.07,        0.00,        0.00,\n96.1%,100.0%,100.0%,2000,        1.02,        0.00,        0.00,\n96.9%,100.0%,100.0%,2000,        1.11,        0.00,        0.00,\n96.2%,100.0%,100.0%,2000,        1.03,        0.00,        0.00,\n96.1%,100.0%,100.0%,2000,        1.03,        0.00,        0.00,\n96.1%,100.0%,100.0%,2000,        1.02,        0.00,        0.00,\n96.1%,100.0%,100.0%,2000,        1.02,        0.00,        0.00,\n96.1%,100.0%,100.0%,2000,        1.03,        0.00,        0.00,\n96.6%,100.0%,100.0%,2000,        1.08,        0.00,        0.00,\n96.2%,100.0%,100.0%,2000,        1.03,        0.00,        0.00,\n96.3%,100.0%,100.0%,2000,        1.04,        0.00,        0.00,\n96.1%,100.0%,100.0%,2000,        1.02,        0.00,        0.00,\n96.3%,100.0%,100.0%,2000,        1.05,        0.00,        0.00,\n96.3%,100.0%,100.0%,2000,        1.04,        0.00,        0.00,\n96.4%,100.0%,100.0%,2000,        1.05,        0.00,        0.00,\n96.0%,100.0%,100.0%,2000,        1.01,        0.00,        0.00,\n96.1%,100.0%,100.0%,2000,        1.03,        0.00,        0.00,\n96.9%,100.0%,100.0%,2000,        1.10,        0.00,        0.00,\n96.4%,100.0%,100.0%,2000,        1.05,        0.00,        0.00,\n96.2%,100.0%,100.0%,2000,        1.03,        0.00,        0.00,\n96.6%,100.0%,100.0%,2000,        1.07,        0.00,        0.00,\n96.7%,100.0%,100.0%,2000,        1.08,        0.00,        0.00,\n96.6%,100.0%,100.0%,2000,        1.07,        0.00,        0.00,\n96.2%,100.0%,100.0%,2000,        1.04,        0.00,        0.00,\n96.3%,100.0%,100.0%,2000,        1.04,        0.00,        0.00,\n96.1%,100.0%,100.0%,2000,        1.03,        0.00,        0.00,\n96.8%,100.0%,100.0%,2000,        1.09,        0.00,        0.00,\n96.5%,100.0%,100.0%,2000,        1.07,        0.00,        0.00,\n96.3%,100.0%,100.0%,2000,        1.05,        0.00,        0.00,\n96.5%,100.0%,100.0%,2000,        1.07,        0.00,        0.00,\n96.6%,100.0%,100.0%,2000,        1.07,        0.00,        0.00,\n96.7%,100.0%,100.0%,2000,        1.08,        0.00,        0.00,\n96.6%,100.1%,100.0%,2000,        1.07,        0.01,        0.00,\n96.2%,100.0%,100.0%,2000,        1.04,        0.00,        0.00,\n96.4%,100.0%,100.0%,2000,        1.05,        0.00,        0.00,\n96.0%,100.0%,100.0%,2000,        1.01,        0.00,        0.00,\n96.0%,100.0%,100.0%,2000,        1.01,        0.00,        0.00,\n96.0%,100.0%,100.0%,2000,        1.01,        0.00,        0.00,\n96.2%,100.0%,100.0%,2000,        1.04,        0.00,        0.00,\n96.3%,100.0%,100.0%,2000,        1.04,        0.00,        0.00,\n96.6%,100.0%,100.0%,2000,        1.07,        0.00,        0.00,\n96.0%,100.0%,100.0%,2000,        1.02,        0.00,        0.00,\n96.1%,100.0%,100.0%,2000,        1.03,        0.00,        0.00,\n98.7%,100.0%,100.0%,2000,        1.28,        0.00,        0.00,\n96.8%,100.0%,100.0%,2000,        1.09,        0.00,        0.00,\n96.0%,100.0%,100.0%,2000,        1.02,        0.00,        0.00,\n96.8%,100.0%,100.0%,2000,        1.10,        0.00,        0.00,\n96.0%,100.0%,100.0%,2000,        1.01,        0.00,        0.00,\n96.6%,100.0%,100.0%,2000,        1.07,        0.00,        0.00,\n96.0%,100.0%,100.0%,2000,        1.01,        0.00,        0.00,\n'
p2
aS'100,DTLZ4_7_3-p100-d7-o3,DE,2000,      1.00,      0.00,      0.00,      0.90,      0.01,0.704078912735\n'
p3
aS'100,DTLZ4_7_3-p100-d7-o3,DE,2000,      1.00,      0.00,      0.00,      0.90,      0.01,0.704078912735\n'
p4
aS"<Run id = '2'>\n<Summary>\n<NumEvals>2000</NumEvals>\n<RunTime>0.704078912735</RunTime>\n<IBD>0.895623008677</IBD>\n<IBS>0.0138599557015</IBS>\n<f1>1.00354091064</f1>\n<f2>2.05619001074e-59</f2>\n<f3>1.37517625676e-188</f3>\n</Summary></Run>\n"
p5
a.