(lp0
S'      0.22,      0.19,      0.00,      0.32,      0.55,      0.56,      0.59,      1.02,      0.00,      0.00,      0.00,      0.00,2000,\n      0.00,      0.03,      0.14,      0.70,      0.42,      0.36,      0.47,      1.03,      0.00,      0.00,      0.00,      0.00,2000,\n      0.55,      0.08,      0.00,      0.18,      0.46,      0.48,      0.38,      1.02,      0.00,      0.00,      0.00,      0.00,2000,\n      0.18,      0.21,      0.16,      0.00,      0.45,      0.44,      0.51,      1.01,      0.00,      0.00,      0.00,      0.00,2000,\n      0.10,      0.93,      0.37,      0.43,      0.62,      0.05,      0.50,      1.21,      0.00,      0.00,      0.00,      0.00,2000,\n      0.70,      0.44,      0.43,      0.90,      0.64,      0.51,      0.49,      1.02,      0.00,      0.00,      0.00,      0.00,2000,\n      0.66,      0.19,      0.12,      0.38,      0.50,      0.42,      0.52,      1.01,      0.00,      0.00,      0.00,      0.00,2000,\n      0.14,      0.22,      0.00,      0.00,      0.40,      0.34,      0.40,      1.04,      0.00,      0.00,      0.00,      0.00,2000,\n      0.25,      0.21,      0.29,      0.35,      0.34,      0.44,      0.40,      1.04,      0.00,      0.00,      0.00,      0.00,2000,\n      0.40,      0.08,      0.20,      0.11,      0.45,      0.53,      0.51,      1.00,      0.00,      0.00,      0.00,      0.00,2000,\n      0.00,      0.77,      0.76,      0.47,      0.50,      0.52,      0.44,      1.00,      0.00,      0.00,      0.00,      0.00,2000,\n      0.19,      0.75,      0.00,      0.10,      0.50,      0.50,      0.68,      1.03,      0.00,      0.00,      0.00,      0.00,2000,\n      0.38,      0.43,      0.86,      0.15,      0.57,      0.43,      0.34,      1.03,      0.00,      0.00,      0.00,      0.00,2000,\n      0.00,      0.53,      0.39,      0.61,      0.68,      0.46,      0.47,      1.04,      0.00,      0.00,      0.00,      0.00,2000,\n      0.30,      0.12,      0.29,      0.46,      0.51,      0.65,      0.63,      1.04,      0.00,      0.00,      0.00,      0.00,2000,\n      0.43,      0.75,      0.00,      0.00,      0.61,      0.50,      0.55,      1.01,      0.00,      0.00,      0.00,      0.00,2000,\n      0.19,      0.32,      0.23,      0.62,      0.37,      0.40,      0.50,      1.03,      0.00,      0.00,      0.00,      0.00,2000,\n      0.09,      0.40,      0.28,      0.52,      0.53,      0.34,      0.45,      1.03,      0.00,      0.00,      0.00,      0.00,2000,\n      0.36,      0.00,      0.66,      0.54,      0.43,      0.59,      0.52,      1.01,      0.00,      0.00,      0.00,      0.00,2000,\n      0.50,      0.66,      0.78,      0.37,      0.48,      0.53,      0.38,      1.02,      0.00,      0.00,      0.00,      0.00,2000,\n      0.56,      0.88,      0.29,      0.57,      0.46,      0.53,      0.53,      1.00,      0.00,      0.00,      0.00,      0.00,2000,\n      0.00,      0.16,      0.00,      0.33,      0.44,      0.49,      0.58,      1.01,      0.00,      0.00,      0.00,      0.00,2000,\n      0.23,      0.72,      0.30,      0.23,      0.44,      0.50,      0.50,      1.00,      0.00,      0.00,      0.00,      0.00,2000,\n      0.51,      0.33,      0.11,      0.16,      0.51,      0.53,      0.39,      1.01,      0.00,      0.00,      0.00,      0.00,2000,\n      0.45,      0.00,      0.10,      0.32,      0.41,      0.46,      0.62,      1.03,      0.00,      0.00,      0.00,      0.00,2000,\n      0.74,      0.03,      0.00,      0.55,      0.45,      0.65,      0.48,      1.03,      0.00,      0.00,      0.00,      0.00,2000,\n      0.05,      0.87,      0.48,      0.21,      0.55,      0.29,      0.36,      1.07,      0.00,      0.00,      0.00,      0.00,2000,\n      0.26,      0.69,      0.81,      0.64,      0.42,      0.48,      0.44,      1.01,      0.00,      0.00,      0.00,      0.00,2000,\n      0.01,      0.50,      0.00,      0.61,      0.52,      0.60,      0.60,      1.02,      0.00,      0.00,      0.00,      0.00,2000,\n      0.02,      0.25,      0.62,      0.00,      0.50,      0.49,      0.43,      1.00,      0.00,      0.00,      0.00,      0.00,2000,\n      0.00,      0.53,      0.38,      0.00,      0.47,      0.57,      0.40,      1.02,      0.00,      0.00,      0.00,      0.00,2000,\n      0.22,      0.01,      0.52,      0.00,      0.51,      0.40,      0.46,      1.01,      0.00,      0.00,      0.00,      0.00,2000,\n      0.50,      0.69,      0.27,      0.46,      0.54,      0.34,      0.51,      1.03,      0.00,      0.00,      0.00,      0.00,2000,\n      0.33,      0.35,      0.47,      0.64,      0.37,      0.54,      0.55,      1.02,      0.00,      0.00,      0.00,      0.00,2000,\n      0.10,      0.52,      0.00,      0.38,      0.71,      0.49,      0.42,      1.05,      0.00,      0.00,      0.00,      0.00,2000,\n      0.26,      0.62,      0.12,      0.41,      0.52,      0.68,      0.47,      1.03,      0.00,      0.00,      0.00,      0.00,2000,\n      0.12,      0.65,      0.80,      0.15,      0.49,      0.30,      0.43,      1.04,      0.00,      0.00,      0.00,      0.00,2000,\n      0.50,      0.55,      0.35,      0.14,      0.58,      0.56,      0.44,      1.01,      0.00,      0.00,      0.00,      0.00,2000,\n      0.55,      0.59,      0.70,      0.13,      0.67,      0.44,      0.49,      1.03,      0.00,      0.00,      0.00,      0.00,2000,\n      0.55,      0.51,      0.23,      0.44,      0.51,      0.57,      0.32,      1.04,      0.00,      0.00,      0.00,      0.00,2000,\n      0.78,      0.25,      0.53,      0.18,      0.47,      0.49,      0.56,      1.00,      0.00,      0.00,      0.00,      0.00,2000,\n      0.52,      0.00,      0.05,      0.42,      0.40,      0.57,      0.44,      1.02,      0.00,      0.00,      0.00,      0.00,2000,\n      0.51,      0.05,      0.18,      0.64,      0.60,      0.52,      0.48,      1.01,      0.00,      0.00,      0.00,      0.00,2000,\n      0.57,      0.00,      0.71,      0.00,      0.42,      0.44,      0.40,      1.02,      0.00,      0.00,      0.00,      0.00,2000,\n      0.40,      0.63,      0.00,      0.39,      0.59,      0.41,      0.61,      1.03,      0.00,      0.00,      0.00,      0.00,2000,\n      0.43,      0.00,      0.20,      0.00,      0.37,      0.49,      0.54,      1.02,      0.00,      0.00,      0.00,      0.00,2000,\n      0.00,      0.00,      0.29,      0.57,      0.45,      0.51,      0.43,      1.01,      0.00,      0.00,      0.00,      0.00,2000,\n      0.41,      0.00,      0.10,      0.76,      0.53,      0.59,      0.63,      1.03,      0.00,      0.00,      0.00,      0.00,2000,\n      0.00,      0.04,      0.18,      0.42,      0.49,      0.37,      0.48,      1.02,      0.00,      0.00,      0.00,      0.00,2000,\n      0.57,      0.33,      0.31,      0.00,      0.50,      0.48,      0.53,      1.00,      0.00,      0.00,      0.00,      0.00,2000,\n      0.17,      0.46,      0.22,      0.57,      0.54,      0.44,      0.52,      1.01,      0.00,      0.00,      0.00,      0.00,2000,\n      0.00,      0.86,      0.33,      0.56,      0.57,      0.46,      0.45,      1.01,      0.00,      0.00,      0.00,      0.00,2000,\n      0.02,      0.24,      0.35,      0.28,      0.57,      0.56,      0.46,      1.01,      0.00,      0.00,      0.00,      0.00,2000,\n      0.73,      0.62,      0.00,      0.01,      0.50,      0.54,      0.58,      1.01,      0.00,      0.00,      0.00,      0.00,2000,\n      0.34,      0.32,      0.00,      0.61,      0.51,      0.55,      0.55,      1.01,      0.00,      0.00,      0.00,      0.00,2000,\n      0.59,      0.07,      0.93,      0.33,      0.39,      0.45,      0.40,      1.02,      0.00,      0.00,      0.00,      0.00,2000,\n      0.49,      0.00,      0.61,      0.52,      0.46,      0.49,      0.52,      1.00,      0.00,      0.00,      0.00,      0.00,2000,\n      0.50,      0.05,      0.21,      0.18,      0.51,      0.49,      0.47,      1.00,      0.00,      0.00,      0.00,      0.00,2000,\n      0.91,      0.62,      0.39,      0.00,      0.39,      0.52,      0.56,      1.02,      0.00,      0.00,      0.00,      0.00,2000,\n      0.00,      0.44,      0.00,      0.72,      0.50,      0.46,      0.46,      1.00,      0.00,      0.00,      0.00,      0.00,2000,\n      0.46,      0.88,      0.68,      0.45,      0.43,      0.52,      0.56,      1.01,      0.00,      0.00,      0.00,      0.00,2000,\n      0.60,      0.00,      0.58,      0.06,      0.56,      0.44,      0.50,      1.01,      0.00,      0.00,      0.00,      0.00,2000,\n      0.27,      0.04,      0.00,      0.20,      0.52,      0.47,      0.47,      1.00,      0.00,      0.00,      0.00,      0.00,2000,\n      0.55,      0.00,      0.00,      0.79,      0.48,      0.37,      0.47,      1.02,      0.00,      0.00,      0.00,      0.00,2000,\n      0.00,      0.40,      0.48,      0.67,      0.71,      0.45,      0.45,      1.05,      0.00,      0.00,      0.00,      0.00,2000,\n      0.61,      0.14,      0.00,      0.10,      0.50,      0.57,      0.52,      1.00,      0.00,      0.00,      0.00,      0.00,2000,\n      0.70,      0.00,      0.70,      0.44,      0.57,      0.51,      0.45,      1.01,      0.00,      0.00,      0.00,      0.00,2000,\n      0.36,      0.42,      0.08,      0.53,      0.43,      0.54,      0.45,      1.01,      0.00,      0.00,      0.00,      0.00,2000,\n      0.00,      0.45,      0.36,      0.61,      0.50,      0.52,      0.55,      1.00,      0.00,      0.00,      0.00,      0.00,2000,\n      0.70,      0.13,      0.05,      0.39,      0.42,      0.46,      0.56,      1.01,      0.00,      0.00,      0.00,      0.00,2000,\n      0.58,      0.04,      0.48,      0.72,      0.31,      0.53,      0.56,      1.04,      0.00,      0.00,      0.00,      0.00,2000,\n      0.20,      0.00,      0.28,      0.04,      0.48,      0.46,      0.40,      1.01,      0.00,      0.00,      0.00,      0.00,2000,\n      0.55,      0.00,      0.24,      0.33,      0.50,      0.55,      0.47,      1.00,      0.00,      0.00,      0.00,      0.00,2000,\n      0.81,      0.66,      0.17,      0.44,      0.55,      0.52,      0.49,      1.00,      0.00,      0.00,      0.00,      0.00,2000,\n      0.47,      0.29,      0.72,      0.22,      0.56,      0.41,      0.47,      1.01,      0.00,      0.00,      0.00,      0.00,2000,\n      0.16,      0.00,      0.39,      0.36,      0.46,      0.56,      0.54,      1.01,      0.00,      0.00,      0.00,      0.00,2000,\n      0.08,      0.92,      0.00,      0.43,      0.47,      0.51,      0.50,      1.00,      0.00,      0.00,      0.00,      0.00,2000,\n      0.13,      0.69,      0.67,      0.40,      0.48,      0.29,      0.51,      1.04,      0.00,      0.00,      0.00,      0.00,2000,\n      0.54,      0.84,      0.33,      0.82,      0.43,      0.49,      0.53,      1.01,      0.00,      0.00,      0.00,      0.00,2000,\n      0.62,      0.00,      0.00,      0.52,      0.53,      0.46,      0.30,      1.04,      0.00,      0.00,      0.00,      0.00,2000,\n      0.49,      0.00,      0.27,      0.05,      0.65,      0.60,      0.45,      1.04,      0.00,      0.00,      0.00,      0.00,2000,\n      0.15,      0.00,      0.55,      0.50,      0.70,      0.63,      0.35,      1.08,      0.00,      0.00,      0.00,      0.00,2000,\n      0.00,      0.39,      0.16,      0.28,      0.40,      0.50,      0.56,      1.01,      0.00,      0.00,      0.00,      0.00,2000,\n      0.58,      0.13,      0.29,      0.65,      0.44,      0.46,      0.51,      1.01,      0.00,      0.00,      0.00,      0.00,2000,\n      0.25,      0.48,      0.34,      0.58,      0.38,      0.47,      0.43,      1.02,      0.00,      0.00,      0.00,      0.00,2000,\n      0.52,      0.56,      0.24,      0.28,      0.53,      0.40,      0.56,      1.02,      0.00,      0.00,      0.00,      0.00,2000,\n      0.00,      0.54,      0.30,      0.23,      0.46,      0.49,      0.51,      1.00,      0.00,      0.00,      0.00,      0.00,2000,\n      0.22,      0.54,      0.38,      0.94,      0.59,      0.32,      0.54,      1.04,      0.00,      0.00,      0.00,      0.00,2000,\n      0.25,      0.62,      0.00,      0.50,      0.52,      0.59,      0.58,      1.01,      0.00,      0.00,      0.00,      0.00,2000,\n      0.48,      0.55,      0.00,      0.63,      0.46,      0.48,      0.45,      1.00,      0.00,      0.00,      0.00,      0.00,2000,\n      0.13,      0.64,      0.12,      0.65,      0.48,      0.55,      0.49,      1.00,      0.00,      0.00,      0.00,      0.00,2000,\n      0.26,      0.19,      0.20,      0.67,      0.44,      0.56,      0.51,      1.01,      0.00,      0.00,      0.00,      0.00,2000,\n      0.11,      0.00,      0.15,      0.01,      0.44,      0.40,      0.60,      1.02,      0.00,      0.00,      0.00,      0.00,2000,\n      0.40,      0.44,      0.43,      0.07,      0.56,      0.52,      0.45,      1.01,      0.00,      0.00,      0.00,      0.00,2000,\n      0.20,      0.09,      0.66,      0.37,      0.49,      0.55,      0.56,      1.01,      0.00,      0.00,      0.00,      0.00,2000,\n      0.70,      0.09,      0.72,      0.52,      0.49,      0.53,      0.46,      1.00,      0.00,      0.00,      0.00,      0.00,2000,\n      0.71,      0.01,      0.00,      0.00,      0.55,      0.49,      0.41,      1.01,      0.00,      0.00,      0.00,      0.00,2000,\n      0.16,      0.65,      0.34,      0.54,      0.47,      0.56,      0.55,      1.01,      0.00,      0.00,      0.00,      0.00,2000,\n      0.38,      0.57,      0.23,      0.66,      0.52,      0.58,      0.52,      1.01,      0.00,      0.00,      0.00,      0.00,2000,\n      0.27,      0.03,      0.06,      0.62,      0.65,      0.46,      0.57,      1.03,      0.00,      0.00,      0.00,      0.00,2000,\n'
p1
aS'97.6%,100.0%,100.0%,100.0%,100.0%,2000,        1.02,        0.00,        0.00,        0.00,        0.00,\n97.7%,100.0%,100.0%,100.0%,100.0%,2000,        1.03,        0.00,        0.00,        0.00,        0.00,\n97.6%,100.0%,100.0%,100.0%,100.0%,2000,        1.02,        0.00,        0.00,        0.00,        0.00,\n97.5%,100.0%,100.0%,100.0%,100.0%,2000,        1.01,        0.00,        0.00,        0.00,        0.00,\n99.8%,100.0%,100.0%,100.0%,100.0%,2000,        1.21,        0.00,        0.00,        0.00,        0.00,\n97.6%,100.0%,100.0%,100.0%,100.0%,2000,        1.02,        0.00,        0.00,        0.00,        0.00,\n97.5%,100.0%,100.0%,100.0%,100.0%,2000,        1.01,        0.00,        0.00,        0.00,        0.00,\n97.9%,100.0%,100.0%,100.0%,100.0%,2000,        1.04,        0.00,        0.00,        0.00,        0.00,\n97.8%,100.0%,100.0%,100.0%,100.0%,2000,        1.04,        0.00,        0.00,        0.00,        0.00,\n97.5%,100.0%,100.0%,100.0%,100.0%,2000,        1.00,        0.00,        0.00,        0.00,        0.00,\n97.5%,100.0%,100.0%,100.0%,100.0%,2000,        1.00,        0.00,        0.00,        0.00,        0.00,\n97.8%,100.0%,100.0%,100.0%,100.0%,2000,        1.03,        0.00,        0.00,        0.00,        0.00,\n97.8%,100.0%,100.0%,100.0%,100.0%,2000,        1.03,        0.00,        0.00,        0.00,        0.00,\n97.8%,100.0%,100.0%,100.0%,100.0%,2000,        1.04,        0.00,        0.00,        0.00,        0.00,\n97.8%,100.0%,100.0%,100.0%,100.0%,2000,        1.04,        0.00,        0.00,        0.00,        0.00,\n97.6%,100.0%,100.0%,100.0%,100.0%,2000,        1.01,        0.00,        0.00,        0.00,        0.00,\n97.7%,100.0%,100.0%,100.0%,100.0%,2000,        1.03,        0.00,        0.00,        0.00,        0.00,\n97.8%,100.0%,100.0%,100.0%,100.0%,2000,        1.03,        0.00,        0.00,        0.00,        0.00,\n97.6%,100.0%,100.0%,100.0%,100.0%,2000,        1.01,        0.00,        0.00,        0.00,        0.00,\n97.6%,100.0%,100.0%,100.0%,100.0%,2000,        1.02,        0.00,        0.00,        0.00,        0.00,\n97.5%,100.0%,100.0%,100.0%,100.0%,2000,        1.00,        0.00,        0.00,        0.00,        0.00,\n97.5%,100.0%,100.0%,100.0%,100.0%,2000,        1.01,        0.00,        0.00,        0.00,        0.00,\n97.5%,100.0%,100.0%,100.0%,100.0%,2000,        1.00,        0.00,        0.00,        0.00,        0.00,\n97.6%,100.0%,100.0%,100.0%,100.0%,2000,        1.01,        0.00,        0.00,        0.00,        0.00,\n97.7%,100.0%,100.0%,100.0%,100.0%,2000,        1.03,        0.00,        0.00,        0.00,        0.00,\n97.7%,100.0%,100.0%,100.0%,100.0%,2000,        1.03,        0.00,        0.00,        0.00,        0.00,\n98.1%,100.0%,100.0%,100.0%,100.0%,2000,        1.07,        0.00,        0.00,        0.00,        0.00,\n97.5%,100.0%,100.0%,100.0%,100.0%,2000,        1.01,        0.00,        0.00,        0.00,        0.00,\n97.7%,100.0%,100.0%,100.0%,100.0%,2000,        1.02,        0.00,        0.00,        0.00,        0.00,\n97.5%,100.0%,100.0%,100.0%,100.0%,2000,        1.00,        0.00,        0.00,        0.00,        0.00,\n97.6%,100.0%,100.0%,100.0%,100.0%,2000,        1.02,        0.00,        0.00,        0.00,        0.00,\n97.5%,100.0%,100.0%,100.0%,100.0%,2000,        1.01,        0.00,        0.00,        0.00,        0.00,\n97.7%,100.0%,100.0%,100.0%,100.0%,2000,        1.03,        0.00,        0.00,        0.00,        0.00,\n97.7%,100.0%,100.0%,100.0%,100.0%,2000,        1.02,        0.00,        0.00,        0.00,        0.00,\n98.0%,100.0%,100.0%,100.0%,100.0%,2000,        1.05,        0.00,        0.00,        0.00,        0.00,\n97.8%,100.0%,100.0%,100.0%,100.0%,2000,        1.03,        0.00,        0.00,        0.00,        0.00,\n97.9%,100.0%,100.0%,100.0%,100.0%,2000,        1.04,        0.00,        0.00,        0.00,        0.00,\n97.6%,100.0%,100.0%,100.0%,100.0%,2000,        1.01,        0.00,        0.00,        0.00,        0.00,\n97.8%,100.0%,100.0%,100.0%,100.0%,2000,        1.03,        0.00,        0.00,        0.00,        0.00,\n97.8%,100.0%,100.0%,100.0%,100.0%,2000,        1.04,        0.00,        0.00,        0.00,        0.00,\n97.5%,100.0%,100.0%,100.0%,100.0%,2000,        1.00,        0.00,        0.00,        0.00,        0.00,\n97.6%,100.0%,100.0%,100.0%,100.0%,2000,        1.02,        0.00,        0.00,        0.00,        0.00,\n97.5%,100.0%,100.0%,100.0%,100.0%,2000,        1.01,        0.00,        0.00,        0.00,        0.00,\n97.6%,100.0%,100.0%,100.0%,100.0%,2000,        1.02,        0.00,        0.00,        0.00,        0.00,\n97.7%,100.0%,100.0%,100.0%,100.0%,2000,        1.03,        0.00,        0.00,        0.00,        0.00,\n97.6%,100.0%,100.0%,100.0%,100.0%,2000,        1.02,        0.00,        0.00,        0.00,        0.00,\n97.5%,100.0%,100.0%,100.0%,100.0%,2000,        1.01,        0.00,        0.00,        0.00,        0.00,\n97.7%,100.0%,100.0%,100.0%,100.0%,2000,        1.03,        0.00,        0.00,        0.00,        0.00,\n97.6%,100.0%,100.0%,100.0%,100.0%,2000,        1.02,        0.00,        0.00,        0.00,        0.00,\n97.4%,100.0%,100.0%,100.0%,100.0%,2000,        1.00,        0.00,        0.00,        0.00,        0.00,\n97.5%,100.0%,100.0%,100.0%,100.0%,2000,        1.01,        0.00,        0.00,        0.00,        0.00,\n97.5%,100.0%,100.0%,100.0%,100.0%,2000,        1.01,        0.00,        0.00,        0.00,        0.00,\n97.5%,100.0%,100.0%,100.0%,100.0%,2000,        1.01,        0.00,        0.00,        0.00,        0.00,\n97.5%,100.0%,100.0%,100.0%,100.0%,2000,        1.01,        0.00,        0.00,        0.00,        0.00,\n97.5%,100.0%,100.0%,100.0%,100.0%,2000,        1.01,        0.00,        0.00,        0.00,        0.00,\n97.7%,100.0%,100.0%,100.0%,100.0%,2000,        1.02,        0.00,        0.00,        0.00,        0.00,\n97.4%,100.0%,100.0%,100.0%,100.0%,2000,        1.00,        0.00,        0.00,        0.00,        0.00,\n97.4%,100.0%,100.0%,100.0%,100.0%,2000,        1.00,        0.00,        0.00,        0.00,        0.00,\n97.6%,100.0%,100.0%,100.0%,100.0%,2000,        1.02,        0.00,        0.00,        0.00,        0.00,\n97.5%,100.0%,100.0%,100.0%,100.0%,2000,        1.00,        0.00,        0.00,        0.00,        0.00,\n97.5%,100.0%,100.0%,100.0%,100.0%,2000,        1.01,        0.00,        0.00,        0.00,        0.00,\n97.5%,100.0%,100.0%,100.0%,100.0%,2000,        1.01,        0.00,        0.00,        0.00,        0.00,\n97.4%,100.0%,100.0%,100.0%,100.0%,2000,        1.00,        0.00,        0.00,        0.00,        0.00,\n97.6%,100.0%,100.0%,100.0%,100.0%,2000,        1.02,        0.00,        0.00,        0.00,        0.00,\n98.0%,100.0%,100.0%,100.0%,100.0%,2000,        1.05,        0.00,        0.00,        0.00,        0.00,\n97.5%,100.0%,100.0%,100.0%,100.0%,2000,        1.00,        0.00,        0.00,        0.00,        0.00,\n97.5%,100.0%,100.0%,100.0%,100.0%,2000,        1.01,        0.00,        0.00,        0.00,        0.00,\n97.5%,100.0%,100.0%,100.0%,100.0%,2000,        1.01,        0.00,        0.00,        0.00,        0.00,\n97.5%,100.0%,100.0%,100.0%,100.0%,2000,        1.00,        0.00,        0.00,        0.00,        0.00,\n97.5%,100.0%,100.0%,100.0%,100.0%,2000,        1.01,        0.00,        0.00,        0.00,        0.00,\n97.8%,100.0%,100.0%,100.0%,100.0%,2000,        1.04,        0.00,        0.00,        0.00,        0.00,\n97.6%,100.0%,100.0%,100.0%,100.0%,2000,        1.01,        0.00,        0.00,        0.00,        0.00,\n97.5%,100.0%,100.0%,100.0%,100.0%,2000,        1.00,        0.00,        0.00,        0.00,        0.00,\n97.5%,100.0%,100.0%,100.0%,100.0%,2000,        1.00,        0.00,        0.00,        0.00,        0.00,\n97.6%,100.0%,100.0%,100.0%,100.0%,2000,        1.01,        0.00,        0.00,        0.00,        0.00,\n97.5%,100.0%,100.0%,100.0%,100.0%,2000,        1.01,        0.00,        0.00,        0.00,        0.00,\n97.4%,100.0%,100.0%,100.0%,100.0%,2000,        1.00,        0.00,        0.00,        0.00,        0.00,\n97.9%,100.0%,100.0%,100.0%,100.0%,2000,        1.04,        0.00,        0.00,        0.00,        0.00,\n97.5%,100.0%,100.0%,100.0%,100.0%,2000,        1.01,        0.00,        0.00,        0.00,        0.00,\n97.9%,100.0%,100.0%,100.0%,100.0%,2000,        1.04,        0.00,        0.00,        0.00,        0.00,\n97.8%,100.0%,100.0%,100.0%,100.0%,2000,        1.04,        0.00,        0.00,        0.00,        0.00,\n98.3%,100.0%,100.0%,100.0%,100.0%,2000,        1.08,        0.00,        0.00,        0.00,        0.00,\n97.6%,100.0%,100.0%,100.0%,100.0%,2000,        1.01,        0.00,        0.00,        0.00,        0.00,\n97.5%,100.0%,100.0%,100.0%,100.0%,2000,        1.01,        0.00,        0.00,        0.00,        0.00,\n97.6%,100.0%,100.0%,100.0%,100.0%,2000,        1.02,        0.00,        0.00,        0.00,        0.00,\n97.6%,100.0%,100.0%,100.0%,100.0%,2000,        1.02,        0.00,        0.00,        0.00,        0.00,\n97.4%,100.0%,100.0%,100.0%,100.0%,2000,        1.00,        0.00,        0.00,        0.00,        0.00,\n97.9%,100.0%,100.0%,100.0%,100.0%,2000,        1.04,        0.00,        0.00,        0.00,        0.00,\n97.6%,100.0%,100.0%,100.0%,100.0%,2000,        1.01,        0.00,        0.00,        0.00,        0.00,\n97.5%,100.0%,100.0%,100.0%,100.0%,2000,        1.00,        0.00,        0.00,        0.00,        0.00,\n97.5%,100.0%,100.0%,100.0%,100.0%,2000,        1.00,        0.00,        0.00,        0.00,        0.00,\n97.5%,100.0%,100.0%,100.0%,100.0%,2000,        1.01,        0.00,        0.00,        0.00,        0.00,\n97.7%,100.0%,100.0%,100.0%,100.0%,2000,        1.02,        0.00,        0.00,        0.00,        0.00,\n97.5%,100.0%,100.0%,100.0%,100.0%,2000,        1.01,        0.00,        0.00,        0.00,        0.00,\n97.5%,100.0%,100.0%,100.0%,100.0%,2000,        1.01,        0.00,        0.00,        0.00,        0.00,\n97.5%,100.0%,100.0%,100.0%,100.0%,2000,        1.00,        0.00,        0.00,        0.00,        0.00,\n97.5%,100.0%,100.0%,100.0%,100.0%,2000,        1.01,        0.00,        0.00,        0.00,        0.00,\n97.5%,100.0%,100.0%,100.0%,100.0%,2000,        1.01,        0.00,        0.00,        0.00,        0.00,\n97.5%,100.0%,100.0%,100.0%,100.0%,2000,        1.01,        0.00,        0.00,        0.00,        0.00,\n97.7%,100.0%,100.0%,100.0%,100.0%,2000,        1.03,        0.00,        0.00,        0.00,        0.00,\n'
p2
aS'100,DTLZ4_7_5-p100-d7-o5,DE,2000,      1.00,      0.00,      0.00,      0.00,      0.00,      0.96,      0.00,1.01272296906\n'
p3
aS'100,DTLZ4_7_5-p100-d7-o5,DE,2000,      1.00,      0.00,      0.00,      0.00,      0.00,      0.96,      0.00,1.01272296906\n'
p4
aS"<Run id = '2'>\n<Summary>\n<NumEvals>2000</NumEvals>\n<RunTime>1.01272296906</RunTime>\n<IBD>0.959967905827</IBD>\n<IBS>0.00432125713388</IBS>\n<f1>1.00103124036</f1>\n<f2>8.90812492752e-75</f2>\n<f3>5.08182530753e-69</f3>\n<f4>2.30218364833e-129</f4>\n<f5>1.95806957995e-30</f5>\n</Summary></Run>\n"
p5
a.