(lp0
S'      0.18,      0.54,      0.31,      0.65,      0.50,      0.46,      0.55,      1.00,      0.00,      0.00,      0.00,      0.00,2000,\n      0.44,      0.71,      0.82,      0.80,      0.50,      0.49,      0.53,      1.00,      0.00,      0.00,      0.00,      0.00,2000,\n      0.61,      0.11,      0.27,      0.68,      0.45,      0.40,      0.44,      1.02,      0.00,      0.00,      0.00,      0.00,2000,\n      0.70,      0.60,      0.41,      0.33,      0.52,      0.43,      0.43,      1.01,      0.00,      0.00,      0.00,      0.00,2000,\n      0.08,      0.58,      0.18,      0.00,      0.44,      0.61,      0.47,      1.02,      0.00,      0.00,      0.00,      0.00,2000,\n      0.10,      0.20,      0.27,      0.29,      0.58,      0.51,      0.54,      1.01,      0.00,      0.00,      0.00,      0.00,2000,\n      0.21,      0.48,      0.08,      0.19,      0.48,      0.56,      0.54,      1.01,      0.00,      0.00,      0.00,      0.00,2000,\n      0.26,      0.35,      0.20,      0.62,      0.48,      0.53,      0.50,      1.00,      0.00,      0.00,      0.00,      0.00,2000,\n      0.00,      0.54,      0.67,      0.73,      0.48,      0.46,      0.43,      1.01,      0.00,      0.00,      0.00,      0.00,2000,\n      0.38,      0.00,      0.59,      0.68,      0.53,      0.44,      0.43,      1.01,      0.00,      0.00,      0.00,      0.00,2000,\n      0.57,      0.59,      0.24,      0.89,      0.46,      0.50,      0.47,      1.00,      0.00,      0.00,      0.00,      0.00,2000,\n      0.71,      0.31,      0.75,      0.00,      0.50,      0.50,      0.47,      1.00,      0.00,      0.00,      0.00,      0.00,2000,\n      0.27,      0.59,      0.00,      0.15,      0.49,      0.40,      0.55,      1.01,      0.00,      0.00,      0.00,      0.00,2000,\n      0.00,      0.00,      0.37,      0.29,      0.46,      0.53,      0.53,      1.00,      0.00,      0.00,      0.00,      0.00,2000,\n      0.00,      0.17,      0.00,      0.41,      0.48,      0.46,      0.61,      1.01,      0.00,      0.00,      0.00,      0.00,2000,\n      0.27,      0.65,      0.00,      0.38,      0.49,      0.57,      0.55,      1.01,      0.00,      0.00,      0.00,      0.00,2000,\n      0.51,      0.44,      0.15,      0.56,      0.62,      0.58,      0.49,      1.02,      0.00,      0.00,      0.00,      0.00,2000,\n      0.06,      0.40,      0.91,      0.51,      0.49,      0.60,      0.38,      1.02,      0.00,      0.00,      0.00,      0.00,2000,\n      0.12,      0.00,      0.39,      0.32,      0.46,      0.50,      0.52,      1.00,      0.00,      0.00,      0.00,      0.00,2000,\n      0.56,      0.00,      0.00,      0.00,      0.43,      0.55,      0.39,      1.02,      0.00,      0.00,      0.00,      0.00,2000,\n      0.01,      0.10,      0.48,      0.08,      0.46,      0.47,      0.53,      1.00,      0.00,      0.00,      0.00,      0.00,2000,\n      0.67,      0.65,      0.26,      0.00,      0.49,      0.50,      0.55,      1.00,      0.00,      0.00,      0.00,      0.00,2000,\n      0.20,      0.72,      0.59,      0.22,      0.42,      0.44,      0.56,      1.01,      0.00,      0.00,      0.00,      0.00,2000,\n      0.04,      0.53,      0.07,      0.29,      0.66,      0.54,      0.59,      1.04,      0.00,      0.00,      0.00,      0.00,2000,\n      0.87,      0.68,      0.00,      0.00,      0.54,      0.49,      0.51,      1.00,      0.00,      0.00,      0.00,      0.00,2000,\n      0.24,      0.00,      0.84,      0.23,      0.34,      0.52,      0.54,      1.03,      0.00,      0.00,      0.00,      0.00,2000,\n      0.26,      0.76,      0.58,      0.53,      0.57,      0.56,      0.52,      1.01,      0.00,      0.00,      0.00,      0.00,2000,\n      0.01,      0.61,      0.39,      0.64,      0.37,      0.42,      0.50,      1.02,      0.00,      0.00,      0.00,      0.00,2000,\n      0.01,      0.60,      0.35,      0.71,      0.53,      0.55,      0.46,      1.01,      0.00,      0.00,      0.00,      0.00,2000,\n      0.22,      0.61,      0.52,      0.38,      0.49,      0.63,      0.48,      1.02,      0.00,      0.00,      0.00,      0.00,2000,\n      0.00,      0.07,      0.03,      0.00,      0.43,      0.60,      0.34,      1.04,      0.00,      0.00,      0.00,      0.00,2000,\n      0.66,      0.42,      0.07,      0.00,      0.47,      0.48,      0.50,      1.00,      0.00,      0.00,      0.00,      0.00,2000,\n      0.33,      0.78,      0.46,      0.12,      0.50,      0.48,      0.39,      1.01,      0.00,      0.00,      0.00,      0.00,2000,\n      0.49,      0.10,      0.00,      0.00,      0.73,      0.47,      0.54,      1.06,      0.00,      0.00,      0.00,      0.00,2000,\n      0.06,      0.35,      0.36,      0.61,      0.52,      0.40,      0.59,      1.02,      0.00,      0.00,      0.00,      0.00,2000,\n      0.67,      0.62,      0.79,      0.81,      0.48,      0.66,      0.48,      1.03,      0.00,      0.00,      0.00,      0.00,2000,\n      0.00,      0.24,      0.00,      0.62,      0.54,      0.48,      0.30,      1.04,      0.00,      0.00,      0.00,      0.00,2000,\n      0.51,      0.66,      0.12,      0.00,      0.47,      0.49,      0.46,      1.00,      0.00,      0.00,      0.00,      0.00,2000,\n      0.67,      0.54,      0.34,      0.88,      0.51,      0.48,      0.51,      1.00,      0.00,      0.00,      0.00,      0.00,2000,\n      0.57,      0.89,      0.23,      0.38,      0.45,      0.40,      0.39,      1.03,      0.00,      0.00,      0.00,      0.00,2000,\n      0.18,      0.34,      0.69,      0.55,      0.43,      0.50,      0.46,      1.01,      0.00,      0.00,      0.00,      0.00,2000,\n      0.69,      0.00,      0.09,      0.78,      0.55,      0.46,      0.47,      1.00,      0.00,      0.00,      0.00,      0.00,2000,\n      0.00,      0.00,      0.56,      0.77,      0.53,      0.44,      0.57,      1.01,      0.00,      0.00,      0.00,      0.00,2000,\n      0.00,      0.03,      0.61,      0.92,      0.35,      0.59,      0.44,      1.03,      0.00,      0.00,      0.00,      0.00,2000,\n      0.62,      0.47,      0.04,      0.37,      0.56,      0.40,      0.41,      1.02,      0.00,      0.00,      0.00,      0.00,2000,\n      0.36,      0.70,      0.08,      0.14,      0.48,      0.42,      0.48,      1.01,      0.00,      0.00,      0.00,      0.00,2000,\n      0.22,      0.00,      0.00,      0.82,      0.32,      0.55,      0.55,      1.04,      0.00,      0.00,      0.00,      0.00,2000,\n      0.56,      0.63,      0.16,      0.78,      0.46,      0.47,      0.40,      1.01,      0.00,      0.00,      0.00,      0.00,2000,\n      0.00,      0.63,      0.93,      0.49,      0.50,      0.54,      0.54,      1.00,      0.00,      0.00,      0.00,      0.00,2000,\n      0.43,      0.89,      0.60,      0.84,      0.50,      0.50,      0.38,      1.02,      0.00,      0.00,      0.00,      0.00,2000,\n      0.00,      0.00,      0.80,      0.67,      0.52,      0.61,      0.48,      1.01,      0.00,      0.00,      0.00,      0.00,2000,\n      0.63,      0.72,      0.25,      0.20,      0.39,      0.41,      0.49,      1.02,      0.00,      0.00,      0.00,      0.00,2000,\n      0.24,      0.00,      0.00,      0.67,      0.59,      0.55,      0.41,      1.02,      0.00,      0.00,      0.00,      0.00,2000,\n      0.01,      0.09,      0.63,      0.15,      0.45,      0.49,      0.50,      1.00,      0.00,      0.00,      0.00,      0.00,2000,\n      0.66,      0.58,      0.43,      0.63,      0.51,      0.45,      0.49,      1.00,      0.00,      0.00,      0.00,      0.00,2000,\n      0.00,      0.61,      0.76,      0.33,      0.51,      0.47,      0.49,      1.00,      0.00,      0.00,      0.00,      0.00,2000,\n      0.14,      0.00,      0.22,      0.41,      0.48,      0.43,      0.52,      1.01,      0.00,      0.00,      0.00,      0.00,2000,\n      0.08,      0.13,      0.00,      0.32,      0.53,      0.34,      0.47,      1.03,      0.00,      0.00,      0.00,      0.00,2000,\n      0.08,      0.57,      0.00,      0.85,      0.45,      0.42,      0.59,      1.02,      0.00,      0.00,      0.00,      0.00,2000,\n      0.40,      0.58,      0.64,      0.32,      0.45,      0.48,      0.59,      1.01,      0.00,      0.00,      0.00,      0.00,2000,\n      0.57,      0.06,      0.48,      0.62,      0.49,      0.52,      0.49,      1.00,      0.00,      0.00,      0.00,      0.00,2000,\n      0.00,      0.32,      0.32,      0.00,      0.65,      0.51,      0.46,      1.02,      0.00,      0.00,      0.00,      0.00,2000,\n      0.79,      0.17,      0.41,      0.00,      0.42,      0.50,      0.48,      1.01,      0.00,      0.00,      0.00,      0.00,2000,\n      0.41,      0.90,      0.26,      0.36,      0.53,      0.60,      0.42,      1.02,      0.00,      0.00,      0.00,      0.00,2000,\n      0.53,      0.46,      0.00,      0.49,      0.48,      0.40,      0.34,      1.04,      0.00,      0.00,      0.00,      0.00,2000,\n      0.67,      0.00,      0.15,      0.73,      0.43,      0.56,      0.40,      1.02,      0.00,      0.00,      0.00,      0.00,2000,\n      0.53,      0.67,      0.49,      0.87,      0.46,      0.56,      0.44,      1.01,      0.00,      0.00,      0.00,      0.00,2000,\n      0.88,      0.31,      0.65,      0.26,      0.47,      0.42,      0.53,      1.01,      0.00,      0.00,      0.00,      0.00,2000,\n      0.00,      0.40,      0.13,      0.19,      0.46,      0.50,      0.49,      1.00,      0.00,      0.00,      0.00,      0.00,2000,\n      0.27,      0.60,      0.00,      0.28,      0.49,      0.39,      0.48,      1.01,      0.00,      0.00,      0.00,      0.00,2000,\n      0.57,      0.82,      0.40,      0.05,      0.54,      0.52,      0.49,      1.00,      0.00,      0.00,      0.00,      0.00,2000,\n      0.00,      0.53,      0.18,      0.72,      0.41,      0.50,      0.36,      1.03,      0.00,      0.00,      0.00,      0.00,2000,\n      0.27,      0.29,      0.26,      0.26,      0.52,      0.50,      0.52,      1.00,      0.00,      0.00,      0.00,      0.00,2000,\n      0.13,      0.47,      0.85,      0.70,      0.55,      0.53,      0.49,      1.00,      0.00,      0.00,      0.00,      0.00,2000,\n      0.72,      0.24,      0.00,      0.65,      0.44,      0.50,      0.43,      1.01,      0.00,      0.00,      0.00,      0.00,2000,\n      0.61,      0.22,      0.54,      0.36,      0.58,      0.52,      0.35,      1.03,      0.00,      0.00,      0.00,      0.00,2000,\n      0.00,      0.56,      0.36,      0.00,      0.51,      0.54,      0.24,      1.07,      0.00,      0.00,      0.00,      0.00,2000,\n      0.37,      0.42,      0.54,      0.50,      0.36,      0.57,      0.52,      1.03,      0.00,      0.00,      0.00,      0.00,2000,\n      0.36,      0.45,      0.51,      0.11,      0.48,      0.45,      0.57,      1.01,      0.00,      0.00,      0.00,      0.00,2000,\n      0.35,      0.29,      0.00,      0.81,      0.43,      0.55,      0.43,      1.01,      0.00,      0.00,      0.00,      0.00,2000,\n      0.78,      0.26,      0.00,      0.24,      0.57,      0.38,      0.46,      1.02,      0.00,      0.00,      0.00,      0.00,2000,\n      0.00,      0.59,      0.16,      0.54,      0.56,      0.45,      0.65,      1.03,      0.00,      0.00,      0.00,      0.00,2000,\n      0.54,      0.21,      0.00,      0.65,      0.57,      0.60,      0.53,      1.01,      0.00,      0.00,      0.00,      0.00,2000,\n      0.54,      0.40,      0.22,      0.57,      0.58,      0.60,      0.50,      1.02,      0.00,      0.00,      0.00,      0.00,2000,\n      0.01,      0.39,      0.48,      0.22,      0.51,      0.51,      0.39,      1.01,      0.00,      0.00,      0.00,      0.00,2000,\n      0.04,      0.46,      0.00,      0.56,      0.42,      0.51,      0.47,      1.01,      0.00,      0.00,      0.00,      0.00,2000,\n      0.32,      0.56,      0.06,      0.00,      0.49,      0.58,      0.50,      1.01,      0.00,      0.00,      0.00,      0.00,2000,\n      0.81,      0.83,      0.40,      0.52,      0.39,      0.38,      0.55,      1.03,      0.00,      0.00,      0.00,      0.00,2000,\n      0.81,      0.72,      0.00,      0.59,      0.62,      0.54,      0.54,      1.02,      0.00,      0.00,      0.00,      0.00,2000,\n      0.55,      0.70,      0.00,      0.36,      0.53,      0.59,      0.42,      1.01,      0.00,      0.00,      0.00,      0.00,2000,\n      0.00,      0.63,      0.35,      0.69,      0.50,      0.60,      0.39,      1.02,      0.00,      0.00,      0.00,      0.00,2000,\n      0.00,      0.09,      0.12,      0.64,      0.52,      0.52,      0.69,      1.04,      0.00,      0.00,      0.00,      0.00,2000,\n      0.44,      0.54,      0.00,      0.62,      0.53,      0.57,      0.48,      1.01,      0.00,      0.00,      0.00,      0.00,2000,\n      0.12,      0.16,      0.00,      0.39,      0.51,      0.43,      0.48,      1.01,      0.00,      0.00,      0.00,      0.00,2000,\n      0.70,      0.58,      0.08,      0.25,      0.51,      0.48,      0.60,      1.01,      0.00,      0.00,      0.00,      0.00,2000,\n      0.25,      0.77,      0.00,      0.00,      0.44,      0.51,      0.34,      1.03,      0.00,      0.00,      0.00,      0.00,2000,\n      0.93,      0.25,      0.45,      0.00,      0.52,      0.51,      0.55,      1.00,      0.00,      0.00,      0.00,      0.00,2000,\n      0.58,      0.60,      0.24,      0.00,      0.50,      0.51,      0.39,      1.01,      0.00,      0.00,      0.00,      0.00,2000,\n      0.33,      0.37,      0.00,      0.30,      0.54,      0.37,      0.59,      1.03,      0.00,      0.00,      0.00,      0.00,2000,\n      0.72,      0.00,      0.14,      0.08,      0.56,      0.52,      0.76,      1.07,      0.00,      0.00,      0.00,      0.00,2000,\n'
p1
aS'97.5%,100.0%,100.0%,100.0%,100.0%,2000,        1.00,        0.00,        0.00,        0.00,        0.00,\n97.4%,100.0%,100.0%,100.0%,100.0%,2000,        1.00,        0.00,        0.00,        0.00,        0.00,\n97.6%,100.0%,100.0%,100.0%,100.0%,2000,        1.02,        0.00,        0.00,        0.00,        0.00,\n97.5%,100.0%,100.0%,100.0%,100.0%,2000,        1.01,        0.00,        0.00,        0.00,        0.00,\n97.6%,100.0%,100.0%,100.0%,100.0%,2000,        1.02,        0.00,        0.00,        0.00,        0.00,\n97.5%,100.0%,100.0%,100.0%,100.0%,2000,        1.01,        0.00,        0.00,        0.00,        0.00,\n97.5%,100.0%,100.0%,100.0%,100.0%,2000,        1.01,        0.00,        0.00,        0.00,        0.00,\n97.4%,100.0%,100.0%,100.0%,100.0%,2000,        1.00,        0.00,        0.00,        0.00,        0.00,\n97.5%,100.0%,100.0%,100.0%,100.0%,2000,        1.01,        0.00,        0.00,        0.00,        0.00,\n97.5%,100.0%,100.0%,100.0%,100.0%,2000,        1.01,        0.00,        0.00,        0.00,        0.00,\n97.4%,100.0%,100.0%,100.0%,100.0%,2000,        1.00,        0.00,        0.00,        0.00,        0.00,\n97.4%,100.0%,100.0%,100.0%,100.0%,2000,        1.00,        0.00,        0.00,        0.00,        0.00,\n97.6%,100.0%,100.0%,100.0%,100.0%,2000,        1.01,        0.00,        0.00,        0.00,        0.00,\n97.5%,100.0%,100.0%,100.0%,100.0%,2000,        1.00,        0.00,        0.00,        0.00,        0.00,\n97.6%,100.0%,100.0%,100.0%,100.0%,2000,        1.01,        0.00,        0.00,        0.00,        0.00,\n97.5%,100.0%,100.0%,100.0%,100.0%,2000,        1.01,        0.00,        0.00,        0.00,        0.00,\n97.6%,100.0%,100.0%,100.0%,100.0%,2000,        1.02,        0.00,        0.00,        0.00,        0.00,\n97.7%,100.0%,100.0%,100.0%,100.0%,2000,        1.02,        0.00,        0.00,        0.00,        0.00,\n97.4%,100.0%,100.0%,100.0%,100.0%,2000,        1.00,        0.00,        0.00,        0.00,        0.00,\n97.6%,100.0%,100.0%,100.0%,100.0%,2000,        1.02,        0.00,        0.00,        0.00,        0.00,\n97.5%,100.0%,100.0%,100.0%,100.0%,2000,        1.00,        0.00,        0.00,        0.00,        0.00,\n97.4%,100.0%,100.0%,100.0%,100.0%,2000,        1.00,        0.00,        0.00,        0.00,        0.00,\n97.6%,100.0%,100.0%,100.0%,100.0%,2000,        1.01,        0.00,        0.00,        0.00,        0.00,\n97.8%,100.0%,100.0%,100.0%,100.0%,2000,        1.04,        0.00,        0.00,        0.00,        0.00,\n97.4%,100.0%,100.0%,100.0%,100.0%,2000,        1.00,        0.00,        0.00,        0.00,        0.00,\n97.7%,100.0%,100.0%,100.0%,100.0%,2000,        1.03,        0.00,        0.00,        0.00,        0.00,\n97.5%,100.0%,100.0%,100.0%,100.0%,2000,        1.01,        0.00,        0.00,        0.00,        0.00,\n97.7%,100.0%,100.0%,100.0%,100.0%,2000,        1.02,        0.00,        0.00,        0.00,        0.00,\n97.5%,100.0%,100.0%,100.0%,100.0%,2000,        1.01,        0.00,        0.00,        0.00,        0.00,\n97.6%,100.0%,100.0%,100.0%,100.0%,2000,        1.02,        0.00,        0.00,        0.00,        0.00,\n97.8%,100.0%,100.0%,100.0%,100.0%,2000,        1.04,        0.00,        0.00,        0.00,        0.00,\n97.4%,100.0%,100.0%,100.0%,100.0%,2000,        1.00,        0.00,        0.00,        0.00,        0.00,\n97.6%,100.0%,100.0%,100.0%,100.0%,2000,        1.01,        0.00,        0.00,        0.00,        0.00,\n98.0%,100.0%,100.0%,100.0%,100.0%,2000,        1.06,        0.00,        0.00,        0.00,        0.00,\n97.6%,100.0%,100.0%,100.0%,100.0%,2000,        1.02,        0.00,        0.00,        0.00,        0.00,\n97.7%,100.0%,100.0%,100.0%,100.0%,2000,        1.03,        0.00,        0.00,        0.00,        0.00,\n97.9%,100.0%,100.0%,100.0%,100.0%,2000,        1.04,        0.00,        0.00,        0.00,        0.00,\n97.4%,100.0%,100.0%,100.0%,100.0%,2000,        1.00,        0.00,        0.00,        0.00,        0.00,\n97.4%,100.0%,100.0%,100.0%,100.0%,2000,        1.00,        0.00,        0.00,        0.00,        0.00,\n97.7%,100.0%,100.0%,100.0%,100.0%,2000,        1.03,        0.00,        0.00,        0.00,        0.00,\n97.5%,100.0%,100.0%,100.0%,100.0%,2000,        1.01,        0.00,        0.00,        0.00,        0.00,\n97.5%,100.0%,100.0%,100.0%,100.0%,2000,        1.00,        0.00,        0.00,        0.00,        0.00,\n97.5%,100.0%,100.0%,100.0%,100.0%,2000,        1.01,        0.00,        0.00,        0.00,        0.00,\n97.8%,100.0%,100.0%,100.0%,100.0%,2000,        1.03,        0.00,        0.00,        0.00,        0.00,\n97.7%,100.0%,100.0%,100.0%,100.0%,2000,        1.02,        0.00,        0.00,        0.00,        0.00,\n97.5%,100.0%,100.0%,100.0%,100.0%,2000,        1.01,        0.00,        0.00,        0.00,        0.00,\n97.8%,100.0%,100.0%,100.0%,100.0%,2000,        1.04,        0.00,        0.00,        0.00,        0.00,\n97.6%,100.0%,100.0%,100.0%,100.0%,2000,        1.01,        0.00,        0.00,        0.00,        0.00,\n97.5%,100.0%,100.0%,100.0%,100.0%,2000,        1.00,        0.00,        0.00,        0.00,        0.00,\n97.6%,100.0%,100.0%,100.0%,100.0%,2000,        1.02,        0.00,        0.00,        0.00,        0.00,\n97.6%,100.0%,100.0%,100.0%,100.0%,2000,        1.01,        0.00,        0.00,        0.00,        0.00,\n97.6%,100.0%,100.0%,100.0%,100.0%,2000,        1.02,        0.00,        0.00,        0.00,        0.00,\n97.6%,100.0%,100.0%,100.0%,100.0%,2000,        1.02,        0.00,        0.00,        0.00,        0.00,\n97.5%,100.0%,100.0%,100.0%,100.0%,2000,        1.00,        0.00,        0.00,        0.00,        0.00,\n97.4%,100.0%,100.0%,100.0%,100.0%,2000,        1.00,        0.00,        0.00,        0.00,        0.00,\n97.4%,100.0%,100.0%,100.0%,100.0%,2000,        1.00,        0.00,        0.00,        0.00,        0.00,\n97.5%,100.0%,100.0%,100.0%,100.0%,2000,        1.01,        0.00,        0.00,        0.00,        0.00,\n97.7%,100.0%,100.0%,100.0%,100.0%,2000,        1.03,        0.00,        0.00,        0.00,        0.00,\n97.6%,100.0%,100.0%,100.0%,100.0%,2000,        1.02,        0.00,        0.00,        0.00,        0.00,\n97.5%,100.0%,100.0%,100.0%,100.0%,2000,        1.01,        0.00,        0.00,        0.00,        0.00,\n97.4%,100.0%,100.0%,100.0%,100.0%,2000,        1.00,        0.00,        0.00,        0.00,        0.00,\n97.7%,100.0%,100.0%,100.0%,100.0%,2000,        1.02,        0.00,        0.00,        0.00,        0.00,\n97.5%,100.0%,100.0%,100.0%,100.0%,2000,        1.01,        0.00,        0.00,        0.00,        0.00,\n97.6%,100.0%,100.0%,100.0%,100.0%,2000,        1.02,        0.00,        0.00,        0.00,        0.00,\n97.8%,100.0%,100.0%,100.0%,100.0%,2000,        1.04,        0.00,        0.00,        0.00,        0.00,\n97.6%,100.0%,100.0%,100.0%,100.0%,2000,        1.02,        0.00,        0.00,        0.00,        0.00,\n97.5%,100.0%,100.0%,100.0%,100.0%,2000,        1.01,        0.00,        0.00,        0.00,        0.00,\n97.5%,100.0%,100.0%,100.0%,100.0%,2000,        1.01,        0.00,        0.00,        0.00,        0.00,\n97.4%,100.0%,100.0%,100.0%,100.0%,2000,        1.00,        0.00,        0.00,        0.00,        0.00,\n97.6%,100.0%,100.0%,100.0%,100.0%,2000,        1.01,        0.00,        0.00,        0.00,        0.00,\n97.4%,100.0%,100.0%,100.0%,100.0%,2000,        1.00,        0.00,        0.00,        0.00,        0.00,\n97.7%,100.0%,100.0%,100.0%,100.0%,2000,        1.03,        0.00,        0.00,        0.00,        0.00,\n97.4%,100.0%,100.0%,100.0%,100.0%,2000,        1.00,        0.00,        0.00,        0.00,        0.00,\n97.5%,100.0%,100.0%,100.0%,100.0%,2000,        1.00,        0.00,        0.00,        0.00,        0.00,\n97.5%,100.0%,100.0%,100.0%,100.0%,2000,        1.01,        0.00,        0.00,        0.00,        0.00,\n97.8%,100.0%,100.0%,100.0%,100.0%,2000,        1.03,        0.00,        0.00,        0.00,        0.00,\n98.2%,100.0%,100.0%,100.0%,100.0%,2000,        1.07,        0.00,        0.00,        0.00,        0.00,\n97.7%,100.0%,100.0%,100.0%,100.0%,2000,        1.03,        0.00,        0.00,        0.00,        0.00,\n97.5%,100.0%,100.0%,100.0%,100.0%,2000,        1.01,        0.00,        0.00,        0.00,        0.00,\n97.6%,100.0%,100.0%,100.0%,100.0%,2000,        1.01,        0.00,        0.00,        0.00,        0.00,\n97.6%,100.0%,100.0%,100.0%,100.0%,2000,        1.02,        0.00,        0.00,        0.00,        0.00,\n97.7%,100.0%,100.0%,100.0%,100.0%,2000,        1.03,        0.00,        0.00,        0.00,        0.00,\n97.6%,100.0%,100.0%,100.0%,100.0%,2000,        1.01,        0.00,        0.00,        0.00,        0.00,\n97.6%,100.0%,100.0%,100.0%,100.0%,2000,        1.02,        0.00,        0.00,        0.00,        0.00,\n97.6%,100.0%,100.0%,100.0%,100.0%,2000,        1.01,        0.00,        0.00,        0.00,        0.00,\n97.5%,100.0%,100.0%,100.0%,100.0%,2000,        1.01,        0.00,        0.00,        0.00,        0.00,\n97.5%,100.0%,100.0%,100.0%,100.0%,2000,        1.01,        0.00,        0.00,        0.00,        0.00,\n97.7%,100.0%,100.0%,100.0%,100.0%,2000,        1.03,        0.00,        0.00,        0.00,        0.00,\n97.6%,100.0%,100.0%,100.0%,100.0%,2000,        1.02,        0.00,        0.00,        0.00,        0.00,\n97.6%,100.0%,100.0%,100.0%,100.0%,2000,        1.01,        0.00,        0.00,        0.00,        0.00,\n97.7%,100.0%,100.0%,100.0%,100.0%,2000,        1.02,        0.00,        0.00,        0.00,        0.00,\n97.8%,100.0%,100.0%,100.0%,100.0%,2000,        1.04,        0.00,        0.00,        0.00,        0.00,\n97.5%,100.0%,100.0%,100.0%,100.0%,2000,        1.01,        0.00,        0.00,        0.00,        0.00,\n97.5%,100.0%,100.0%,100.0%,100.0%,2000,        1.01,        0.00,        0.00,        0.00,        0.00,\n97.5%,100.0%,100.0%,100.0%,100.0%,2000,        1.01,        0.00,        0.00,        0.00,        0.00,\n97.7%,100.0%,100.0%,100.0%,100.0%,2000,        1.03,        0.00,        0.00,        0.00,        0.00,\n97.5%,100.0%,100.0%,100.0%,100.0%,2000,        1.00,        0.00,        0.00,        0.00,        0.00,\n97.5%,100.0%,100.0%,100.0%,100.0%,2000,        1.01,        0.00,        0.00,        0.00,        0.00,\n97.7%,100.0%,100.0%,100.0%,100.0%,2000,        1.03,        0.00,        0.00,        0.00,        0.00,\n98.2%,100.0%,100.0%,100.0%,100.0%,2000,        1.07,        0.00,        0.00,        0.00,        0.00,\n'
p2
aS'100,DTLZ4_7_5-p100-d7-o5,DE,2000,      1.00,      0.00,      0.00,      0.00,      0.00,      0.96,      0.00,0.841852903366\n'
p3
aS'100,DTLZ4_7_5-p100-d7-o5,DE,2000,      1.00,      0.00,      0.00,      0.00,      0.00,      0.96,      0.00,0.841852903366\n'
p4
aS"<Run id = '3'>\n<Summary>\n<NumEvals>2000</NumEvals>\n<RunTime>0.841852903366</RunTime>\n<IBD>0.95993526641</IBD>\n<IBS>0.00379431177937</IBS>\n<f1>1.00043817082</f1>\n<f2>4.05761676612e-21</f2>\n<f3>4.81979241794e-32</f3>\n<f4>2.1285270523e-123</f4>\n<f5>3.54878123662e-25</f5>\n</Summary></Run>\n"
p5
a.