(lp0
S'      0.52,      0.22,      0.50,      0.50,      0.48,      0.58,      0.63,      1.02,      0.00,      0.00,2000,\n      0.71,      0.34,      0.36,      0.41,      0.45,      0.50,      0.65,      1.05,      0.00,      0.00,2000,\n      0.36,      0.71,      0.49,      0.51,      0.64,      0.44,      0.39,      1.04,      0.00,      0.00,2000,\n      0.00,      0.19,      0.41,      0.64,      0.50,      0.47,      0.51,      1.03,      0.00,      0.00,2000,\n      0.11,      0.00,      0.54,      0.44,      0.40,      0.49,      0.47,      1.02,      0.00,      0.00,2000,\n      0.10,      0.80,      0.57,      0.54,      0.33,      0.49,      0.76,      1.10,      0.00,      0.00,2000,\n      0.00,      0.72,      0.57,      0.50,      0.61,      0.51,      0.24,      1.08,      0.00,      0.00,2000,\n      0.00,      0.15,      0.49,      0.55,      0.58,      0.57,      0.71,      1.06,      0.00,      0.00,2000,\n      0.41,      0.15,      0.37,      0.64,      0.66,      0.49,      0.50,      1.06,      0.00,      0.00,2000,\n      0.81,      0.69,      0.63,      0.45,      0.53,      0.68,      0.50,      1.05,      0.00,      0.00,2000,\n      0.47,      0.77,      0.61,      0.51,      0.46,      0.52,      0.55,      1.02,      0.00,      0.00,2000,\n      0.09,      0.31,      0.33,      0.46,      0.47,      0.53,      0.29,      1.07,      0.00,      0.00,2000,\n      0.00,      0.10,      0.64,      0.53,      0.62,      0.43,      0.52,      1.04,      0.00,      0.00,2000,\n      0.41,      0.75,      0.68,      0.69,      0.41,      0.40,      0.59,      1.09,      0.00,      0.00,2000,\n      0.23,      0.26,      0.51,      0.45,      0.49,      0.53,      0.39,      1.02,      0.00,      0.00,2000,\n      0.50,      0.06,      0.53,      0.50,      0.53,      0.50,      0.53,      1.00,      0.00,      0.00,2000,\n      0.87,      0.07,      0.62,      0.69,      0.37,      0.43,      0.57,      1.08,      0.00,      0.00,2000,\n      0.86,      0.26,      0.48,      0.58,      0.44,      0.54,      0.49,      1.01,      0.00,      0.00,2000,\n      0.37,      0.68,      0.47,      0.34,      0.42,      0.29,      0.50,      1.08,      0.00,      0.00,2000,\n      0.18,      0.00,      0.46,      0.58,      0.35,      0.57,      0.45,      1.04,      0.00,      0.00,2000,\n      0.03,      0.35,      0.33,      0.49,      0.45,      0.47,      0.40,      1.04,      0.00,      0.00,2000,\n      0.40,      0.96,      0.50,      0.63,      0.54,      0.59,      0.47,      1.03,      0.04,      0.00,2000,\n      0.58,      0.17,      0.33,      0.49,      0.40,      0.56,      0.40,      1.05,      0.00,      0.00,2000,\n      0.65,      0.31,      0.47,      0.54,      0.55,      0.40,      0.64,      1.03,      0.00,      0.00,2000,\n      0.46,      0.29,      0.36,      0.77,      0.46,      0.55,      0.58,      1.10,      0.00,      0.00,2000,\n      0.00,      0.00,      0.47,      0.45,      0.40,      0.64,      0.55,      1.04,      0.00,      0.00,2000,\n      0.55,      0.00,      0.43,      0.57,      0.61,      0.42,      0.46,      1.03,      0.00,      0.00,2000,\n      0.75,      0.53,      0.43,      0.66,      0.50,      0.48,      0.48,      1.03,      0.00,      0.00,2000,\n      0.70,      0.47,      0.52,      0.52,      0.45,      0.50,      0.44,      1.01,      0.00,      0.00,2000,\n      0.25,      0.88,      0.66,      0.52,      0.35,      0.65,      0.65,      1.09,      0.00,      0.00,2000,\n      0.00,      0.22,      0.34,      0.56,      0.54,      0.34,      0.31,      1.09,      0.00,      0.00,2000,\n      0.42,      0.39,      0.38,      0.53,      0.73,      0.40,      0.57,      1.08,      0.00,      0.00,2000,\n      0.23,      0.00,      0.69,      0.45,      0.31,      0.48,      0.52,      1.07,      0.00,      0.00,2000,\n      0.00,      0.23,      0.73,      0.40,      0.38,      0.51,      0.50,      1.08,      0.00,      0.00,2000,\n      0.18,      0.82,      0.41,      0.44,      0.73,      0.51,      0.63,      1.08,      0.00,      0.00,2000,\n      0.69,      0.02,      0.47,      0.30,      0.48,      0.54,      0.54,      1.05,      0.00,      0.00,2000,\n      0.00,      0.80,      0.67,      0.42,      0.59,      0.41,      0.53,      1.05,      0.00,      0.00,2000,\n      0.37,      0.56,      0.21,      0.50,      0.45,      0.38,      0.73,      1.16,      0.00,      0.00,2000,\n      0.44,      0.03,      0.35,      0.56,      0.44,      0.43,      0.50,      1.04,      0.00,      0.00,2000,\n      0.00,      0.60,      0.55,      0.57,      0.55,      0.39,      0.43,      1.03,      0.00,      0.00,2000,\n      0.14,      0.35,      0.37,      0.35,      0.48,      0.35,      0.43,      1.07,      0.00,      0.00,2000,\n      0.52,      0.26,      0.23,      0.56,      0.48,      0.56,      0.35,      1.11,      0.00,      0.00,2000,\n      0.09,      0.39,      0.59,      0.66,      0.60,      0.44,      0.32,      1.08,      0.00,      0.00,2000,\n      0.22,      0.01,      0.42,      0.53,      0.46,      0.13,      0.38,      1.16,      0.00,      0.00,2000,\n      0.00,      0.00,      0.45,      0.57,      0.46,      0.72,      0.34,      1.08,      0.00,      0.00,2000,\n      0.75,      0.39,      0.53,      0.42,      0.26,      0.58,      0.40,      1.08,      0.00,      0.00,2000,\n      0.51,      0.67,      0.30,      0.47,      0.39,      0.62,      0.49,      1.07,      0.00,      0.00,2000,\n      0.49,      0.91,      0.47,      0.32,      0.53,      0.60,      0.36,      1.06,      0.00,      0.00,2000,\n      0.24,      0.16,      0.48,      0.39,      0.43,      0.64,      0.41,      1.04,      0.00,      0.00,2000,\n      0.61,      0.02,      0.69,      0.39,      0.53,      0.60,      0.55,      1.06,      0.00,      0.00,2000,\n      0.24,      0.53,      0.44,      0.51,      0.47,      0.58,      0.40,      1.02,      0.00,      0.00,2000,\n      0.83,      0.92,      0.53,      0.48,      0.58,      0.67,      0.49,      1.04,      0.00,      0.00,2000,\n      0.40,      0.11,      0.60,      0.48,      0.50,      0.59,      0.40,      1.03,      0.00,      0.00,2000,\n      0.23,      0.72,      0.49,      0.45,      0.42,      0.62,      0.50,      1.02,      0.00,      0.00,2000,\n      0.00,      0.47,      0.43,      0.55,      0.58,      0.49,      0.29,      1.06,      0.00,      0.00,2000,\n      0.00,      0.37,      0.55,      0.34,      0.41,      0.55,      0.51,      1.04,      0.00,      0.00,2000,\n      0.49,      0.30,      0.23,      0.61,      0.57,      0.50,      0.43,      1.09,      0.00,      0.00,2000,\n      0.19,      0.90,      0.60,      0.53,      0.48,      0.57,      0.36,      1.03,      0.00,      0.00,2000,\n      0.19,      0.00,      0.33,      0.45,      0.40,      0.66,      0.64,      1.09,      0.00,      0.00,2000,\n      0.19,      0.07,      0.61,      0.47,      0.68,      0.47,      0.34,      1.07,      0.00,      0.00,2000,\n      0.72,      0.01,      0.56,      0.62,      0.58,      0.86,      0.60,      1.16,      0.00,      0.00,2000,\n      0.87,      0.58,      0.34,      0.56,      0.43,      0.51,      0.66,      1.06,      0.00,      0.00,2000,\n      0.27,      0.28,      0.52,      0.65,      0.40,      0.39,      0.61,      1.06,      0.00,      0.00,2000,\n      0.20,      0.71,      0.51,      0.37,      0.52,      0.51,      0.57,      1.02,      0.00,      0.00,2000,\n      0.31,      0.10,      0.68,      0.39,      0.57,      0.47,      0.39,      1.06,      0.00,      0.00,2000,\n      0.55,      0.02,      0.67,      0.32,      0.58,      0.65,      0.54,      1.09,      0.00,      0.00,2000,\n      0.30,      0.35,      0.48,      0.44,      0.48,      0.31,      0.28,      1.09,      0.00,      0.00,2000,\n      0.87,      0.41,      0.58,      0.63,      0.32,      0.51,      0.50,      1.06,      0.00,      0.00,2000,\n      0.68,      0.27,      0.50,      0.27,      0.57,      0.44,      0.47,      1.06,      0.00,      0.00,2000,\n      0.27,      0.62,      0.52,      0.45,      0.67,      0.57,      0.54,      1.04,      0.00,      0.00,2000,\n      0.78,      0.31,      0.41,      0.56,      0.41,      0.41,      0.45,      1.03,      0.00,      0.00,2000,\n      0.60,      0.00,      0.45,      0.46,      0.60,      0.58,      0.67,      1.05,      0.00,      0.00,2000,\n      0.28,      0.00,      0.46,      0.37,      0.43,      0.40,      0.60,      1.04,      0.00,      0.00,2000,\n      0.00,      0.80,      0.36,      0.56,      0.50,      0.50,      0.43,      1.03,      0.00,      0.00,2000,\n      0.79,      0.67,      0.45,      0.43,      0.47,      0.40,      0.48,      1.02,      0.00,      0.00,2000,\n      0.73,      0.57,      0.07,      0.61,      0.34,      0.57,      0.61,      1.24,      0.00,      0.00,2000,\n      0.00,      0.19,      0.46,      0.47,      0.54,      0.35,      0.34,      1.05,      0.00,      0.00,2000,\n      0.63,      0.03,      0.36,      0.46,      0.66,      0.43,      0.40,      1.06,      0.00,      0.00,2000,\n      0.63,      0.29,      0.40,      0.50,      0.42,      0.53,      0.53,      1.02,      0.00,      0.00,2000,\n      0.43,      0.16,      0.36,      0.40,      0.64,      0.57,      0.40,      1.06,      0.00,      0.00,2000,\n      0.12,      0.00,      0.59,      0.60,      0.41,      0.67,      0.44,      1.06,      0.00,      0.00,2000,\n      0.00,      0.69,      0.47,      0.42,      0.50,      0.37,      0.58,      1.03,      0.00,      0.00,2000,\n      0.36,      0.40,      0.65,      0.61,      0.56,      0.39,      0.54,      1.05,      0.00,      0.00,2000,\n      0.85,      0.00,      0.57,      0.55,      0.47,      0.41,      0.72,      1.06,      0.00,      0.00,2000,\n      0.15,      0.92,      0.55,      0.46,      0.51,      0.22,      0.52,      1.08,      0.00,      0.00,2000,\n      0.00,      0.00,      0.44,      0.61,      0.49,      0.38,      0.45,      1.03,      0.00,      0.00,2000,\n      0.83,      0.00,      0.31,      0.60,      0.76,      0.56,      0.45,      1.12,      0.00,      0.00,2000,\n      0.67,      0.11,      0.18,      0.45,      0.39,      0.28,      0.23,      1.23,      0.00,      0.00,2000,\n      0.68,      0.03,      0.52,      0.72,      0.54,      0.33,      0.49,      1.08,      0.00,      0.00,2000,\n      0.74,      0.19,      0.58,      0.45,      0.33,      0.59,      0.75,      1.11,      0.00,      0.00,2000,\n      0.68,      0.69,      0.53,      0.51,      0.57,      0.63,      0.31,      1.06,      0.00,      0.00,2000,\n      0.50,      0.66,      0.44,      0.55,      0.45,      0.66,      0.67,      1.06,      0.00,      0.00,2000,\n      0.41,      0.68,      0.59,      0.69,      0.53,      0.57,      0.45,      1.05,      0.00,      0.00,2000,\n      0.48,      0.75,      0.77,      0.56,      0.48,      0.54,      0.51,      1.08,      0.00,      0.00,2000,\n      0.91,      0.65,      0.63,      0.52,      0.51,      0.39,      0.59,      1.04,      0.00,      0.00,2000,\n      0.04,      0.63,      0.27,      0.47,      0.56,      0.45,      0.52,      1.06,      0.00,      0.00,2000,\n      0.00,      0.15,      0.57,      0.51,      0.49,      0.53,      0.51,      1.01,      0.00,      0.00,2000,\n      0.90,      0.13,      0.37,      0.58,      0.65,      0.67,      0.49,      1.08,      0.00,      0.00,2000,\n      0.67,      0.31,      0.52,      0.92,      0.58,      0.38,      0.35,      1.22,      0.00,      0.00,2000,\n      0.33,      0.00,      0.60,      0.40,      0.38,      0.34,      0.54,      1.06,      0.00,      0.00,2000,\n'
p1
aS'96.1%,100.0%,100.0%,2000,        1.02,        0.00,        0.00,\n96.4%,100.0%,100.0%,2000,        1.05,        0.00,        0.00,\n96.2%,100.0%,100.0%,2000,        1.04,        0.00,        0.00,\n96.1%,100.0%,100.0%,2000,        1.03,        0.00,        0.00,\n96.0%,100.0%,100.0%,2000,        1.02,        0.00,        0.00,\n96.9%,100.0%,100.0%,2000,        1.10,        0.00,        0.00,\n96.7%,100.0%,100.0%,2000,        1.08,        0.00,        0.00,\n96.5%,100.0%,100.0%,2000,        1.06,        0.00,        0.00,\n96.5%,100.0%,100.0%,2000,        1.06,        0.00,        0.00,\n96.4%,100.0%,100.0%,2000,        1.05,        0.00,        0.00,\n96.0%,100.0%,100.0%,2000,        1.02,        0.00,        0.00,\n96.6%,100.0%,100.0%,2000,        1.07,        0.00,        0.00,\n96.3%,100.0%,100.0%,2000,        1.04,        0.00,        0.00,\n96.8%,100.0%,100.0%,2000,        1.09,        0.00,        0.00,\n96.0%,100.0%,100.0%,2000,        1.02,        0.00,        0.00,\n95.9%,100.0%,100.0%,2000,        1.00,        0.00,        0.00,\n96.6%,100.0%,100.0%,2000,        1.08,        0.00,        0.00,\n96.0%,100.0%,100.0%,2000,        1.01,        0.00,        0.00,\n96.6%,100.0%,100.0%,2000,        1.08,        0.00,        0.00,\n96.2%,100.0%,100.0%,2000,        1.04,        0.00,        0.00,\n96.3%,100.0%,100.0%,2000,        1.04,        0.00,        0.00,\n96.1%,100.6%,100.0%,2000,        1.03,        0.04,        0.00,\n96.4%,100.0%,100.0%,2000,        1.05,        0.00,        0.00,\n96.2%,100.0%,100.0%,2000,        1.03,        0.00,        0.00,\n96.9%,100.0%,100.0%,2000,        1.10,        0.00,        0.00,\n96.2%,100.0%,100.0%,2000,        1.04,        0.00,        0.00,\n96.1%,100.0%,100.0%,2000,        1.03,        0.00,        0.00,\n96.1%,100.0%,100.0%,2000,        1.03,        0.00,        0.00,\n95.9%,100.0%,100.0%,2000,        1.01,        0.00,        0.00,\n96.8%,100.0%,100.0%,2000,        1.09,        0.00,        0.00,\n96.8%,100.0%,100.0%,2000,        1.09,        0.00,        0.00,\n96.7%,100.0%,100.0%,2000,        1.08,        0.00,        0.00,\n96.6%,100.0%,100.0%,2000,        1.07,        0.00,        0.00,\n96.7%,100.0%,100.0%,2000,        1.08,        0.00,        0.00,\n96.7%,100.0%,100.0%,2000,        1.08,        0.00,        0.00,\n96.3%,100.0%,100.0%,2000,        1.05,        0.00,        0.00,\n96.4%,100.0%,100.0%,2000,        1.05,        0.00,        0.00,\n97.4%,100.0%,100.0%,2000,        1.16,        0.00,        0.00,\n96.2%,100.0%,100.0%,2000,        1.04,        0.00,        0.00,\n96.1%,100.0%,100.0%,2000,        1.03,        0.00,        0.00,\n96.5%,100.0%,100.0%,2000,        1.07,        0.00,        0.00,\n96.9%,100.0%,100.0%,2000,        1.11,        0.00,        0.00,\n96.6%,100.0%,100.0%,2000,        1.08,        0.00,        0.00,\n97.4%,100.0%,100.0%,2000,        1.16,        0.00,        0.00,\n96.7%,100.0%,100.0%,2000,        1.08,        0.00,        0.00,\n96.7%,100.0%,100.0%,2000,        1.08,        0.00,        0.00,\n96.5%,100.0%,100.0%,2000,        1.07,        0.00,        0.00,\n96.5%,100.0%,100.0%,2000,        1.06,        0.00,        0.00,\n96.3%,100.0%,100.0%,2000,        1.04,        0.00,        0.00,\n96.5%,100.0%,100.0%,2000,        1.06,        0.00,        0.00,\n96.1%,100.0%,100.0%,2000,        1.02,        0.00,        0.00,\n96.2%,100.0%,100.0%,2000,        1.04,        0.00,        0.00,\n96.1%,100.0%,100.0%,2000,        1.03,        0.00,        0.00,\n96.1%,100.0%,100.0%,2000,        1.02,        0.00,        0.00,\n96.5%,100.0%,100.0%,2000,        1.06,        0.00,        0.00,\n96.3%,100.0%,100.0%,2000,        1.04,        0.00,        0.00,\n96.8%,100.0%,100.0%,2000,        1.09,        0.00,        0.00,\n96.2%,100.0%,100.0%,2000,        1.03,        0.00,        0.00,\n96.7%,100.0%,100.0%,2000,        1.09,        0.00,        0.00,\n96.6%,100.0%,100.0%,2000,        1.07,        0.00,        0.00,\n97.5%,100.0%,100.0%,2000,        1.16,        0.00,        0.00,\n96.4%,100.0%,100.0%,2000,        1.06,        0.00,        0.00,\n96.4%,100.0%,100.0%,2000,        1.06,        0.00,        0.00,\n96.1%,100.0%,100.0%,2000,        1.02,        0.00,        0.00,\n96.5%,100.0%,100.0%,2000,        1.06,        0.00,        0.00,\n96.8%,100.0%,100.0%,2000,        1.09,        0.00,        0.00,\n96.7%,100.0%,100.0%,2000,        1.09,        0.00,        0.00,\n96.4%,100.0%,100.0%,2000,        1.06,        0.00,        0.00,\n96.5%,100.0%,100.0%,2000,        1.06,        0.00,        0.00,\n96.2%,100.0%,100.0%,2000,        1.04,        0.00,        0.00,\n96.2%,100.0%,100.0%,2000,        1.03,        0.00,        0.00,\n96.4%,100.0%,100.0%,2000,        1.05,        0.00,        0.00,\n96.3%,100.0%,100.0%,2000,        1.04,        0.00,        0.00,\n96.1%,100.0%,100.0%,2000,        1.03,        0.00,        0.00,\n96.0%,100.0%,100.0%,2000,        1.02,        0.00,        0.00,\n98.3%,100.0%,100.0%,2000,        1.24,        0.00,        0.00,\n96.4%,100.0%,100.0%,2000,        1.05,        0.00,        0.00,\n96.5%,100.0%,100.0%,2000,        1.06,        0.00,        0.00,\n96.0%,100.0%,100.0%,2000,        1.02,        0.00,        0.00,\n96.5%,100.0%,100.0%,2000,        1.06,        0.00,        0.00,\n96.4%,100.0%,100.0%,2000,        1.06,        0.00,        0.00,\n96.2%,100.0%,100.0%,2000,        1.03,        0.00,        0.00,\n96.4%,100.0%,100.0%,2000,        1.05,        0.00,        0.00,\n96.5%,100.0%,100.0%,2000,        1.06,        0.00,        0.00,\n96.7%,100.0%,100.0%,2000,        1.08,        0.00,        0.00,\n96.2%,100.0%,100.0%,2000,        1.03,        0.00,        0.00,\n97.0%,100.0%,100.0%,2000,        1.12,        0.00,        0.00,\n98.2%,100.0%,100.0%,2000,        1.23,        0.00,        0.00,\n96.7%,100.0%,100.0%,2000,        1.08,        0.00,        0.00,\n96.9%,100.0%,100.0%,2000,        1.11,        0.00,        0.00,\n96.4%,100.0%,100.0%,2000,        1.06,        0.00,        0.00,\n96.5%,100.0%,100.0%,2000,        1.06,        0.00,        0.00,\n96.4%,100.0%,100.0%,2000,        1.05,        0.00,        0.00,\n96.6%,100.0%,100.0%,2000,        1.08,        0.00,        0.00,\n96.2%,100.0%,100.0%,2000,        1.04,        0.00,        0.00,\n96.5%,100.0%,100.0%,2000,        1.06,        0.00,        0.00,\n95.9%,100.0%,100.0%,2000,        1.01,        0.00,        0.00,\n96.6%,100.0%,100.0%,2000,        1.08,        0.00,        0.00,\n98.0%,100.0%,100.0%,2000,        1.22,        0.00,        0.00,\n96.4%,100.0%,100.0%,2000,        1.06,        0.00,        0.00,\n'
p2
aS'100,DTLZ4_7_3-p100-d7-o3,DE,2000,      1.00,      0.00,      0.00,      0.90,      0.01,1.07564306259\n'
p3
aS'100,DTLZ4_7_3-p100-d7-o3,DE,2000,      1.00,      0.00,      0.00,      0.90,      0.01,1.07564306259\n'
p4
aS"<Run id = '3'>\n<Summary>\n<NumEvals>2000</NumEvals>\n<RunTime>1.07564306259</RunTime>\n<IBD>0.900331930812</IBD>\n<IBS>0.0138057353252</IBS>\n<f1>1.00298093161</f1>\n<f2>1.04927676106e-124</f2>\n<f3>1.70499510296e-30</f3>\n</Summary></Run>\n"
p5
a.