(lp0
S'      0.00,      0.21,      0.43,      0.52,      0.39,      0.46,      0.53,      1.02,      0.00,      0.00,2000,\n      0.58,      0.00,      0.44,      0.49,      0.47,      0.60,      0.68,      1.05,      0.00,      0.00,2000,\n      0.00,      0.00,      0.48,      0.40,      0.52,      0.34,      0.36,      1.06,      0.00,      0.00,2000,\n      0.00,      0.58,      0.50,      0.64,      0.53,      0.51,      0.61,      1.03,      0.00,      0.00,2000,\n      0.19,      0.44,      0.32,      0.49,      0.40,      0.50,      0.53,      1.05,      0.00,      0.00,2000,\n      0.42,      0.00,      0.31,      0.47,      0.51,      0.52,      0.54,      1.04,      0.00,      0.00,2000,\n      0.10,      0.59,      0.63,      0.55,      0.54,      0.59,      0.26,      1.08,      0.00,      0.00,2000,\n      0.18,      0.12,      0.63,      0.47,      0.59,      0.65,      0.51,      1.05,      0.00,      0.00,2000,\n      0.07,      0.43,      0.61,      0.61,      0.52,      0.43,      0.59,      1.04,      0.00,      0.00,2000,\n      0.94,      0.00,      0.44,      0.52,      0.52,      0.59,      0.38,      1.03,      0.00,      0.00,2000,\n      0.03,      0.01,      0.59,      0.60,      0.36,      0.55,      0.66,      1.07,      0.00,      0.00,2000,\n      0.18,      0.42,      0.52,      0.37,      0.60,      0.54,      0.37,      1.05,      0.00,      0.00,2000,\n      0.37,      0.31,      0.47,      0.49,      0.55,      0.76,      0.63,      1.09,      0.00,      0.00,2000,\n      0.76,      0.71,      0.61,      0.53,      0.47,      0.46,      0.80,      1.10,      0.00,      0.00,2000,\n      0.70,      0.05,      0.54,      0.37,      0.35,      0.48,      0.60,      1.05,      0.00,      0.00,2000,\n      0.55,      0.13,      0.35,      0.48,      0.43,      0.64,      0.56,      1.05,      0.00,      0.00,2000,\n      0.19,      0.06,      0.46,      0.42,      0.49,      0.43,      0.49,      1.01,      0.00,      0.00,2000,\n      0.78,      0.26,      0.60,      0.50,      0.50,      0.55,      0.47,      1.01,      0.00,      0.00,2000,\n      0.46,      0.40,      0.59,      0.37,      0.51,      0.49,      0.48,      1.03,      0.00,      0.00,2000,\n      0.51,      0.30,      0.58,      0.38,      0.54,      0.57,      0.35,      1.05,      0.00,      0.00,2000,\n      0.08,      0.06,      0.74,      0.37,      0.44,      0.46,      0.57,      1.08,      0.00,      0.00,2000,\n      0.71,      0.27,      0.60,      0.53,      0.28,      0.47,      0.47,      1.06,      0.00,      0.00,2000,\n      0.25,      0.65,      0.46,      0.76,      0.65,      0.44,      0.58,      1.10,      0.00,      0.00,2000,\n      0.50,      0.86,      0.47,      0.48,      0.57,      0.40,      0.50,      1.02,      0.00,      0.00,2000,\n      0.35,      0.56,      0.55,      0.38,      0.45,      0.65,      0.63,      1.06,      0.00,      0.00,2000,\n      0.33,      0.00,      0.52,      0.31,      0.64,      0.47,      0.55,      1.06,      0.00,      0.00,2000,\n      0.00,      0.00,      0.65,      0.58,      0.72,      0.42,      0.46,      1.09,      0.00,      0.00,2000,\n      0.57,      0.00,      0.47,      0.43,      0.72,      0.44,      0.45,      1.06,      0.00,      0.00,2000,\n      0.09,      0.82,      0.51,      0.54,      0.56,      0.43,      0.55,      1.01,      0.00,      0.00,2000,\n      0.21,      0.06,      0.53,      0.43,      0.60,      0.70,      0.62,      1.07,      0.00,      0.00,2000,\n      0.02,      0.48,      0.62,      0.60,      0.52,      0.46,      0.52,      1.03,      0.00,      0.00,2000,\n      0.76,      0.07,      0.56,      0.46,      0.46,      0.55,      0.40,      1.02,      0.00,      0.00,2000,\n      0.00,      0.83,      0.49,      0.59,      0.54,      0.50,      0.55,      1.01,      0.00,      0.00,2000,\n      0.88,      0.00,      0.46,      0.50,      0.59,      0.46,      0.54,      1.01,      0.00,      0.00,2000,\n      0.45,      0.00,      0.51,      0.37,      0.64,      0.42,      0.39,      1.06,      0.00,      0.00,2000,\n      0.40,      0.03,      0.65,      0.53,      0.61,      0.38,      0.53,      1.05,      0.00,      0.00,2000,\n      0.82,      0.77,      0.47,      0.54,      0.52,      0.29,      0.37,      1.07,      0.00,      0.00,2000,\n      0.65,      0.00,      0.56,      0.46,      0.50,      0.41,      0.49,      1.01,      0.00,      0.00,2000,\n      0.49,      0.00,      0.22,      0.59,      0.47,      0.56,      0.54,      1.09,      0.00,      0.00,2000,\n      0.85,      0.21,      0.56,      0.33,      0.53,      0.57,      0.55,      1.04,      0.00,      0.00,2000,\n      0.29,      0.08,      0.43,      0.52,      0.52,      0.58,      0.61,      1.02,      0.00,      0.00,2000,\n      0.00,      0.64,      0.44,      0.57,      0.36,      0.52,      0.38,      1.04,      0.00,      0.00,2000,\n      0.24,      0.00,      0.52,      0.54,      0.59,      0.43,      0.47,      1.02,      0.00,      0.00,2000,\n      0.69,      0.31,      0.59,      0.51,      0.40,      0.51,      0.51,      1.02,      0.00,      0.00,2000,\n      0.14,      0.31,      0.44,      0.55,      0.42,      0.43,      0.26,      1.07,      0.00,      0.00,2000,\n      0.15,      0.52,      0.52,      0.61,      0.57,      0.65,      0.47,      1.04,      0.00,      0.00,2000,\n      0.34,      0.77,      0.50,      0.57,      0.42,      0.52,      0.59,      1.02,      0.00,      0.00,2000,\n      0.25,      0.00,      0.24,      0.67,      0.63,      0.24,      0.52,      1.18,      0.00,      0.00,2000,\n      0.00,      0.28,      0.60,      0.62,      0.44,      0.48,      0.51,      1.03,      0.00,      0.00,2000,\n      0.43,      0.00,      0.50,      0.42,      0.41,      0.50,      0.52,      1.01,      0.00,      0.00,2000,\n      0.27,      0.67,      0.56,      0.39,      0.56,      0.49,      0.53,      1.02,      0.00,      0.00,2000,\n      0.09,      0.90,      0.63,      0.37,      0.48,      0.47,      0.48,      1.04,      0.00,      0.00,2000,\n      0.45,      0.68,      0.35,      0.55,      0.54,      0.50,      0.54,      1.03,      0.00,      0.00,2000,\n      0.78,      0.50,      0.45,      0.49,      0.67,      0.55,      0.79,      1.12,      0.00,      0.00,2000,\n      0.89,      0.35,      0.34,      0.49,      0.43,      0.66,      0.52,      1.06,      0.00,      0.00,2000,\n      0.83,      0.27,      0.45,      0.45,      0.60,      0.61,      0.52,      1.03,      0.00,      0.00,2000,\n      0.00,      0.33,      0.50,      0.53,      0.49,      0.45,      0.43,      1.01,      0.00,      0.00,2000,\n      0.59,      0.50,      0.53,      0.44,      0.58,      0.59,      0.42,      1.03,      0.00,      0.00,2000,\n      0.17,      0.44,      0.47,      0.48,      0.46,      0.51,      0.33,      1.03,      0.00,      0.00,2000,\n      0.92,      0.23,      0.45,      0.47,      0.51,      0.54,      0.48,      1.01,      0.00,      0.00,2000,\n      0.00,      0.30,      0.42,      0.63,      0.50,      0.49,      0.55,      1.03,      0.00,      0.00,2000,\n      0.57,      0.00,      0.46,      0.35,      0.45,      0.56,      0.58,      1.04,      0.00,      0.00,2000,\n      0.04,      0.05,      0.41,      0.50,      0.43,      0.53,      0.51,      1.01,      0.00,      0.00,2000,\n      0.72,      0.10,      0.49,      0.53,      0.60,      0.50,      0.53,      1.01,      0.00,      0.00,2000,\n      0.74,      0.00,      0.59,      0.27,      0.54,      0.53,      0.51,      1.06,      0.00,      0.00,2000,\n      0.38,      0.64,      0.41,      0.42,      0.63,      0.43,      0.51,      1.04,      0.00,      0.00,2000,\n      0.65,      0.00,      0.59,      0.56,      0.56,      0.48,      0.43,      1.02,      0.00,      0.00,2000,\n      0.14,      0.16,      0.38,      0.49,      0.36,      0.53,      0.37,      1.05,      0.00,      0.00,2000,\n      0.10,      0.64,      0.62,      0.39,      0.66,      0.47,      0.47,      1.05,      0.00,      0.00,2000,\n      0.00,      0.38,      0.42,      0.54,      0.37,      0.57,      0.34,      1.05,      0.00,      0.00,2000,\n      0.13,      0.00,      0.33,      0.48,      0.43,      0.51,      0.54,      1.04,      0.00,      0.00,2000,\n      0.45,      0.11,      0.58,      0.40,      0.65,      0.42,      0.41,      1.06,      0.00,      0.00,2000,\n      0.76,      0.04,      0.36,      0.38,      0.34,      0.62,      0.47,      1.08,      0.00,      0.00,2000,\n      0.53,      0.54,      0.64,      0.46,      0.51,      0.59,      0.48,      1.03,      0.00,      0.00,2000,\n      0.30,      0.12,      0.43,      0.54,      0.44,      0.40,      0.50,      1.02,      0.00,      0.00,2000,\n      0.13,      0.04,      0.38,      0.56,      0.47,      0.42,      0.54,      1.03,      0.00,      0.00,2000,\n      0.49,      0.28,      0.43,      0.44,      0.57,      0.53,      0.57,      1.02,      0.00,      0.00,2000,\n      0.92,      0.13,      0.24,      0.48,      0.56,      0.59,      0.49,      1.08,      0.00,      0.00,2000,\n      0.75,      0.00,      0.58,      0.37,      0.81,      0.48,      0.47,      1.12,      0.00,      0.00,2000,\n      0.78,      0.17,      0.54,      0.43,      0.62,      0.43,      0.40,      1.04,      0.00,      0.00,2000,\n      0.00,      0.08,      0.60,      0.43,      0.67,      0.64,      0.42,      1.07,      0.00,      0.00,2000,\n      0.42,      0.00,      0.41,      0.38,      0.55,      0.46,      0.56,      1.03,      0.00,      0.00,2000,\n      0.29,      0.62,      0.43,      0.45,      0.50,      0.41,      0.44,      1.02,      0.00,      0.00,2000,\n      0.50,      0.11,      0.27,      0.67,      0.68,      0.31,      0.34,      1.18,      0.00,      0.00,2000,\n      0.53,      0.29,      0.27,      0.37,      0.39,      0.48,      0.44,      1.09,      0.00,      0.00,2000,\n      0.49,      0.00,      0.45,      0.56,      0.37,      0.34,      0.39,      1.06,      0.00,      0.00,2000,\n      0.77,      0.00,      0.39,      0.65,      0.49,      0.40,      0.42,      1.05,      0.00,      0.00,2000,\n      0.68,      0.07,      0.55,      0.39,      0.57,      0.45,      0.56,      1.03,      0.00,      0.00,2000,\n      0.44,      0.59,      0.48,      0.54,      0.44,      0.48,      0.53,      1.01,      0.00,      0.00,2000,\n      0.10,      0.43,      0.47,      0.50,      0.54,      0.41,      0.54,      1.01,      0.00,      0.00,2000,\n      0.04,      0.57,      0.59,      0.56,      0.34,      0.55,      0.44,      1.04,      0.00,      0.00,2000,\n      0.19,      0.68,      0.57,      0.50,      0.26,      0.45,      0.69,      1.10,      0.00,      0.00,2000,\n      0.60,      0.00,      0.51,      0.33,      0.41,      0.65,      0.59,      1.07,      0.00,      0.00,2000,\n      0.33,      0.28,      0.47,      0.63,      0.58,      0.48,      0.44,      1.03,      0.00,      0.00,2000,\n      0.00,      0.00,      0.54,      0.43,      0.47,      0.53,      0.48,      1.01,      0.00,      0.00,2000,\n      0.18,      0.18,      0.64,      0.49,      0.42,      0.36,      0.30,      1.09,      0.00,      0.00,2000,\n      0.00,      0.21,      0.61,      0.49,      0.43,      0.43,      0.67,      1.05,      0.00,      0.00,2000,\n      0.90,      0.52,      0.64,      0.59,      0.36,      0.48,      0.55,      1.05,      0.00,      0.00,2000,\n      0.00,      0.08,      0.60,      0.52,      0.67,      0.54,      0.62,      1.05,      0.00,      0.00,2000,\n      0.76,      0.86,      0.42,      0.49,      0.48,      0.49,      0.57,      1.01,      0.00,      0.00,2000,\n'
p1
aS'96.1%,100.0%,100.0%,2000,        1.02,        0.00,        0.00,\n96.3%,100.0%,100.0%,2000,        1.05,        0.00,        0.00,\n96.4%,100.0%,100.0%,2000,        1.06,        0.00,        0.00,\n96.2%,100.0%,100.0%,2000,        1.03,        0.00,        0.00,\n96.3%,100.0%,100.0%,2000,        1.05,        0.00,        0.00,\n96.2%,100.0%,100.0%,2000,        1.04,        0.00,        0.00,\n96.7%,100.0%,100.0%,2000,        1.08,        0.00,        0.00,\n96.3%,100.0%,100.0%,2000,        1.05,        0.00,        0.00,\n96.2%,100.0%,100.0%,2000,        1.04,        0.00,        0.00,\n96.1%,100.0%,100.1%,2000,        1.03,        0.00,        0.00,\n96.5%,100.0%,100.0%,2000,        1.07,        0.00,        0.00,\n96.3%,100.0%,100.0%,2000,        1.05,        0.00,        0.00,\n96.7%,100.0%,100.0%,2000,        1.09,        0.00,        0.00,\n96.9%,100.0%,100.0%,2000,        1.10,        0.00,        0.00,\n96.4%,100.0%,100.0%,2000,        1.05,        0.00,        0.00,\n96.4%,100.0%,100.0%,2000,        1.05,        0.00,        0.00,\n96.0%,100.0%,100.0%,2000,        1.01,        0.00,        0.00,\n96.0%,100.0%,100.0%,2000,        1.01,        0.00,        0.00,\n96.1%,100.0%,100.0%,2000,        1.03,        0.00,        0.00,\n96.3%,100.0%,100.0%,2000,        1.05,        0.00,        0.00,\n96.7%,100.0%,100.0%,2000,        1.08,        0.00,        0.00,\n96.4%,100.0%,100.0%,2000,        1.06,        0.00,        0.00,\n96.9%,100.0%,100.0%,2000,        1.10,        0.00,        0.00,\n96.0%,100.0%,100.0%,2000,        1.02,        0.00,        0.00,\n96.4%,100.0%,100.0%,2000,        1.06,        0.00,        0.00,\n96.4%,100.0%,100.0%,2000,        1.06,        0.00,        0.00,\n96.7%,100.0%,100.0%,2000,        1.09,        0.00,        0.00,\n96.4%,100.0%,100.0%,2000,        1.06,        0.00,        0.00,\n96.0%,100.0%,100.0%,2000,        1.01,        0.00,        0.00,\n96.6%,100.0%,100.0%,2000,        1.07,        0.00,        0.00,\n96.1%,100.0%,100.0%,2000,        1.03,        0.00,        0.00,\n96.1%,100.0%,100.0%,2000,        1.02,        0.00,        0.00,\n96.0%,100.0%,100.0%,2000,        1.01,        0.00,        0.00,\n96.0%,100.0%,100.0%,2000,        1.01,        0.00,        0.00,\n96.4%,100.0%,100.0%,2000,        1.06,        0.00,        0.00,\n96.3%,100.0%,100.0%,2000,        1.05,        0.00,        0.00,\n96.5%,100.0%,100.0%,2000,        1.07,        0.00,        0.00,\n96.0%,100.0%,100.0%,2000,        1.01,        0.00,        0.00,\n96.8%,100.0%,100.0%,2000,        1.09,        0.00,        0.00,\n96.3%,100.0%,100.0%,2000,        1.04,        0.00,        0.00,\n96.1%,100.0%,100.0%,2000,        1.02,        0.00,        0.00,\n96.3%,100.0%,100.0%,2000,        1.04,        0.00,        0.00,\n96.0%,100.0%,100.0%,2000,        1.02,        0.00,        0.00,\n96.0%,100.0%,100.0%,2000,        1.02,        0.00,        0.00,\n96.6%,100.0%,100.0%,2000,        1.07,        0.00,        0.00,\n96.2%,100.0%,100.0%,2000,        1.04,        0.00,        0.00,\n96.0%,100.0%,100.0%,2000,        1.02,        0.00,        0.00,\n97.7%,100.0%,100.0%,2000,        1.18,        0.00,        0.00,\n96.1%,100.0%,100.0%,2000,        1.03,        0.00,        0.00,\n96.0%,100.0%,100.0%,2000,        1.01,        0.00,        0.00,\n96.1%,100.0%,100.0%,2000,        1.02,        0.00,        0.00,\n96.2%,100.0%,100.0%,2000,        1.04,        0.00,        0.00,\n96.1%,100.0%,100.0%,2000,        1.03,        0.00,        0.00,\n97.0%,100.0%,100.0%,2000,        1.12,        0.00,        0.00,\n96.4%,100.0%,100.0%,2000,        1.06,        0.00,        0.00,\n96.1%,100.0%,100.0%,2000,        1.03,        0.00,        0.00,\n95.9%,100.0%,100.0%,2000,        1.01,        0.00,        0.00,\n96.1%,100.0%,100.0%,2000,        1.03,        0.00,        0.00,\n96.2%,100.0%,100.0%,2000,        1.03,        0.00,        0.00,\n95.9%,100.0%,100.0%,2000,        1.01,        0.00,        0.00,\n96.1%,100.0%,100.0%,2000,        1.03,        0.00,        0.00,\n96.2%,100.0%,100.0%,2000,        1.04,        0.00,        0.00,\n96.0%,100.0%,100.0%,2000,        1.01,        0.00,        0.00,\n96.0%,100.0%,100.0%,2000,        1.01,        0.00,        0.00,\n96.5%,100.0%,100.0%,2000,        1.06,        0.00,        0.00,\n96.2%,100.0%,100.0%,2000,        1.04,        0.00,        0.00,\n96.0%,100.0%,100.0%,2000,        1.02,        0.00,        0.00,\n96.4%,100.0%,100.0%,2000,        1.05,        0.00,        0.00,\n96.4%,100.0%,100.0%,2000,        1.05,        0.00,        0.00,\n96.4%,100.0%,100.0%,2000,        1.05,        0.00,        0.00,\n96.2%,100.0%,100.0%,2000,        1.04,        0.00,        0.00,\n96.4%,100.0%,100.0%,2000,        1.06,        0.00,        0.00,\n96.6%,100.0%,100.0%,2000,        1.08,        0.00,        0.00,\n96.2%,100.0%,100.0%,2000,        1.03,        0.00,        0.00,\n96.1%,100.0%,100.0%,2000,        1.02,        0.00,        0.00,\n96.1%,100.0%,100.0%,2000,        1.03,        0.00,        0.00,\n96.0%,100.0%,100.0%,2000,        1.02,        0.00,        0.00,\n96.6%,100.0%,100.0%,2000,        1.08,        0.00,        0.00,\n97.1%,100.0%,100.0%,2000,        1.12,        0.00,        0.00,\n96.2%,100.0%,100.0%,2000,        1.04,        0.00,        0.00,\n96.5%,100.0%,100.0%,2000,        1.07,        0.00,        0.00,\n96.2%,100.0%,100.0%,2000,        1.03,        0.00,        0.00,\n96.0%,100.0%,100.0%,2000,        1.02,        0.00,        0.00,\n97.6%,100.0%,100.0%,2000,        1.18,        0.00,        0.00,\n96.7%,100.0%,100.0%,2000,        1.09,        0.00,        0.00,\n96.4%,100.0%,100.0%,2000,        1.06,        0.00,        0.00,\n96.3%,100.0%,100.0%,2000,        1.05,        0.00,        0.00,\n96.1%,100.0%,100.0%,2000,        1.03,        0.00,        0.00,\n95.9%,100.0%,100.0%,2000,        1.01,        0.00,        0.00,\n96.0%,100.0%,100.0%,2000,        1.01,        0.00,        0.00,\n96.3%,100.0%,100.0%,2000,        1.04,        0.00,        0.00,\n96.9%,100.0%,100.0%,2000,        1.10,        0.00,        0.00,\n96.5%,100.0%,100.0%,2000,        1.07,        0.00,        0.00,\n96.1%,100.0%,100.0%,2000,        1.03,        0.00,        0.00,\n95.9%,100.0%,100.0%,2000,        1.01,        0.00,        0.00,\n96.7%,100.0%,100.0%,2000,        1.09,        0.00,        0.00,\n96.4%,100.0%,100.0%,2000,        1.05,        0.00,        0.00,\n96.4%,100.0%,100.0%,2000,        1.05,        0.00,        0.00,\n96.4%,100.0%,100.0%,2000,        1.05,        0.00,        0.00,\n96.0%,100.0%,100.0%,2000,        1.01,        0.00,        0.00,\n'
p2
aS'100,DTLZ4_7_3-p100-d7-o3,DE,2000,      1.01,      0.00,      0.00,      0.89,      0.01,0.862619876862\n'
p3
aS'100,DTLZ4_7_3-p100-d7-o3,DE,2000,      1.01,      0.00,      0.00,      0.89,      0.01,0.862619876862\n'
p4
aS"<Run id = '1'>\n<Summary>\n<NumEvals>2000</NumEvals>\n<RunTime>0.862619876862</RunTime>\n<IBD>0.894945327379</IBD>\n<IBS>0.0108981957946</IBS>\n<f1>1.0067148986</f1>\n<f2>2.95627441021e-23</f2>\n<f3>3.33544609759e-36</f3>\n</Summary></Run>\n"
p5
a.