(lp0
S'      0.66,      0.49,      0.42,      0.55,      0.48,      0.49,      0.45,      1.00,      0.00,      0.00,      0.00,      0.00,2000,\n      0.00,      0.00,      0.59,      0.18,      0.47,      0.55,      0.36,      1.02,      0.00,      0.00,      0.00,      0.00,2000,\n      0.72,      0.24,      0.00,      0.21,      0.48,      0.41,      0.43,      1.01,      0.00,      0.00,      0.00,      0.00,2000,\n      0.81,      0.28,      0.51,      0.56,      0.50,      0.42,      0.59,      1.02,      0.00,      0.00,      0.00,      0.00,2000,\n      0.00,      0.35,      0.01,      0.16,      0.45,      0.49,      0.53,      1.00,      0.00,      0.00,      0.00,      0.00,2000,\n      0.00,      0.22,      0.71,      0.00,      0.41,      0.54,      0.49,      1.01,      0.00,      0.00,      0.00,      0.00,2000,\n      0.67,      0.20,      0.29,      0.00,      0.58,      0.54,      0.52,      1.01,      0.00,      0.00,      0.00,      0.00,2000,\n      0.00,      0.00,      0.47,      0.26,      0.48,      0.51,      0.45,      1.00,      0.00,      0.00,      0.00,      0.00,2000,\n      0.79,      0.21,      0.49,      0.63,      0.51,      0.42,      0.40,      1.02,      0.00,      0.00,      0.00,      0.00,2000,\n      0.10,      0.00,      0.00,      0.00,      0.50,      0.51,      0.56,      1.00,      0.00,      0.00,      0.00,      0.00,2000,\n      0.32,      0.24,      0.01,      0.89,      0.64,      0.41,      0.67,      1.05,      0.00,      0.00,      0.00,      0.00,2000,\n      0.69,      0.42,      0.54,      0.76,      0.50,      0.52,      0.43,      1.01,      0.00,      0.00,      0.00,      0.00,2000,\n      0.76,      0.07,      0.34,      0.00,      0.23,      0.39,      0.43,      1.09,      0.00,      0.00,      0.00,      0.00,2000,\n      0.04,      0.62,      0.54,      0.72,      0.47,      0.50,      0.49,      1.00,      0.00,      0.00,      0.00,      0.00,2000,\n      0.18,      0.57,      0.48,      0.14,      0.81,      0.45,      0.50,      1.10,      0.00,      0.00,      0.00,      0.00,2000,\n      0.17,      0.00,      0.33,      0.00,      0.47,      0.50,      0.55,      1.00,      0.00,      0.00,      0.00,      0.00,2000,\n      0.69,      0.24,      0.92,      0.59,      0.63,      0.57,      0.56,      1.02,      0.00,      0.00,      0.00,      0.00,2000,\n      0.64,      0.06,      0.28,      0.00,      0.55,      0.55,      0.54,      1.01,      0.00,      0.00,      0.00,      0.00,2000,\n      0.38,      0.18,      0.10,      0.49,      0.59,      0.49,      0.46,      1.01,      0.00,      0.00,      0.00,      0.00,2000,\n      0.59,      0.66,      0.21,      0.67,      0.60,      0.42,      0.45,      1.02,      0.00,      0.00,      0.00,      0.00,2000,\n      0.43,      0.10,      0.16,      0.07,      0.40,      0.39,      0.49,      1.02,      0.00,      0.00,      0.00,      0.00,2000,\n      0.73,      0.47,      0.86,      0.56,      0.49,      0.45,      0.50,      1.00,      0.00,      0.00,      0.00,      0.00,2000,\n      0.14,      0.53,      0.06,      0.00,      0.50,      0.52,      0.57,      1.00,      0.00,      0.00,      0.00,      0.00,2000,\n      0.18,      0.00,      0.52,      0.02,      0.52,      0.58,      0.45,      1.01,      0.00,      0.00,      0.00,      0.00,2000,\n      0.00,      0.29,      0.69,      0.05,      0.53,      0.50,      0.56,      1.01,      0.00,      0.00,      0.00,      0.00,2000,\n      0.03,      0.03,      0.00,      0.62,      0.45,      0.48,      0.53,      1.00,      0.00,      0.00,      0.00,      0.00,2000,\n      0.69,      0.61,      0.05,      0.37,      0.57,      0.35,      0.44,      1.03,      0.00,      0.00,      0.00,      0.00,2000,\n      0.21,      0.13,      0.58,      0.22,      0.55,      0.42,      0.46,      1.01,      0.00,      0.00,      0.00,      0.00,2000,\n      0.00,      0.68,      0.92,      0.00,      0.51,      0.56,      0.52,      1.00,      0.00,      0.00,      0.00,      0.00,2000,\n      0.25,      0.38,      0.13,      0.05,      0.52,      0.46,      0.64,      1.02,      0.00,      0.00,      0.00,      0.00,2000,\n      0.00,      0.42,      0.46,      0.69,      0.45,      0.50,      0.38,      1.02,      0.00,      0.00,      0.00,      0.00,2000,\n      0.00,      0.09,      0.66,      0.00,      0.44,      0.45,      0.45,      1.01,      0.00,      0.00,      0.00,      0.00,2000,\n      0.21,      0.56,      0.00,      0.10,      0.56,      0.45,      0.42,      1.01,      0.00,      0.00,      0.00,      0.00,2000,\n      0.22,      0.28,      0.00,      0.40,      0.55,      0.42,      0.49,      1.01,      0.00,      0.00,      0.00,      0.00,2000,\n      0.02,      0.00,      0.61,      0.32,      0.45,      0.51,      0.41,      1.01,      0.00,      0.00,      0.00,      0.00,2000,\n      0.00,      0.00,      0.00,      0.33,      0.70,      0.61,      0.41,      1.06,      0.00,      0.00,      0.00,      0.00,2000,\n      0.70,      0.21,      0.55,      0.00,      0.51,      0.54,      0.44,      1.00,      0.00,      0.00,      0.00,      0.00,2000,\n      0.00,      0.75,      0.47,      0.48,      0.51,      0.55,      0.54,      1.01,      0.00,      0.00,      0.00,      0.00,2000,\n      0.00,      0.72,      0.19,      0.41,      0.37,      0.45,      0.50,      1.02,      0.00,      0.00,      0.00,      0.00,2000,\n      0.00,      0.00,      0.25,      0.06,      0.54,      0.52,      0.46,      1.00,      0.00,      0.00,      0.00,      0.00,2000,\n      0.18,      0.33,      0.70,      0.00,      0.44,      0.36,      0.57,      1.03,      0.00,      0.00,      0.00,      0.00,2000,\n      0.30,      0.64,      0.33,      0.87,      0.46,      0.50,      0.44,      1.01,      0.00,      0.00,      0.00,      0.00,2000,\n      0.94,      0.11,      0.00,      0.28,      0.51,      0.57,      0.52,      1.01,      0.00,      0.00,      0.00,      0.00,2000,\n      0.59,      0.32,      0.68,      0.45,      0.53,      0.51,      0.52,      1.00,      0.00,      0.00,      0.00,      0.00,2000,\n      0.62,      0.09,      0.58,      0.83,      0.33,      0.52,      0.50,      1.03,      0.00,      0.00,      0.00,      0.00,2000,\n      0.29,      0.33,      0.51,      0.34,      0.44,      0.45,      0.63,      1.02,      0.00,      0.00,      0.00,      0.00,2000,\n      0.14,      0.70,      0.30,      0.09,      0.45,      0.42,      0.54,      1.01,      0.00,      0.00,      0.00,      0.00,2000,\n      0.08,      0.27,      0.00,      0.70,      0.56,      0.41,      0.40,      1.02,      0.00,      0.00,      0.00,      0.00,2000,\n      0.22,      0.00,      0.56,      0.81,      0.44,      0.65,      0.48,      1.03,      0.00,      0.00,      0.00,      0.00,2000,\n      0.68,      0.00,      0.26,      0.01,      0.45,      0.54,      0.53,      1.00,      0.00,      0.00,      0.00,      0.00,2000,\n      0.24,      0.43,      0.64,      0.10,      0.50,      0.58,      0.44,      1.01,      0.00,      0.00,      0.00,      0.00,2000,\n      0.28,      0.09,      0.00,      0.00,      0.51,      0.56,      0.57,      1.01,      0.00,      0.00,      0.00,      0.00,2000,\n      0.32,      0.42,      0.00,      0.27,      0.60,      0.48,      0.39,      1.02,      0.00,      0.00,      0.00,      0.00,2000,\n      0.12,      0.50,      0.32,      0.00,      0.53,      0.36,      0.49,      1.02,      0.00,      0.00,      0.00,      0.00,2000,\n      0.34,      0.43,      0.32,      0.29,      0.48,      0.47,      0.58,      1.01,      0.00,      0.00,      0.00,      0.00,2000,\n      0.73,      0.47,      0.79,      0.32,      0.51,      0.47,      0.43,      1.01,      0.00,      0.00,      0.00,      0.00,2000,\n      0.09,      0.22,      0.75,      0.01,      0.69,      0.50,      0.62,      1.05,      0.00,      0.00,      0.00,      0.00,2000,\n      0.00,      0.65,      0.30,      0.90,      0.50,      0.62,      0.60,      1.02,      0.00,      0.00,      0.00,      0.00,2000,\n      0.87,      0.00,      0.86,      0.00,      0.61,      0.49,      0.55,      1.01,      0.00,      0.00,      0.00,      0.00,2000,\n      0.36,      0.15,      0.00,      0.36,      0.56,      0.47,      0.53,      1.01,      0.00,      0.00,      0.00,      0.00,2000,\n      0.24,      0.63,      0.86,      0.32,      0.49,      0.52,      0.52,      1.00,      0.00,      0.00,      0.00,      0.00,2000,\n      0.00,      0.00,      0.22,      0.00,      0.55,      0.64,      0.47,      1.02,      0.00,      0.00,      0.00,      0.00,2000,\n      0.61,      0.64,      0.49,      0.00,      0.51,      0.35,      0.52,      1.02,      0.00,      0.00,      0.00,      0.00,2000,\n      0.54,      0.47,      0.39,      0.00,      0.49,      0.54,      0.46,      1.00,      0.00,      0.00,      0.00,      0.00,2000,\n      0.32,      0.00,      0.44,      0.09,      0.54,      0.53,      0.43,      1.01,      0.00,      0.00,      0.00,      0.00,2000,\n      0.67,      0.00,      0.53,      0.94,      0.51,      0.53,      0.34,      1.03,      0.00,      0.00,      0.00,      0.00,2000,\n      0.44,      0.39,      0.29,      0.22,      0.59,      0.44,      0.63,      1.03,      0.00,      0.00,      0.00,      0.00,2000,\n      0.26,      0.11,      0.43,      0.23,      0.51,      0.61,      0.43,      1.02,      0.00,      0.00,      0.00,      0.00,2000,\n      0.76,      0.56,      0.21,      0.13,      0.49,      0.47,      0.55,      1.00,      0.00,      0.00,      0.00,      0.00,2000,\n      0.73,      0.54,      0.10,      0.05,      0.54,      0.44,      0.49,      1.01,      0.00,      0.00,      0.00,      0.00,2000,\n      0.24,      0.59,      0.76,      0.12,      0.44,      0.55,      0.55,      1.01,      0.00,      0.00,      0.00,      0.00,2000,\n      0.06,      0.05,      0.06,      0.32,      0.46,      0.54,      0.29,      1.05,      0.00,      0.00,      0.00,      0.00,2000,\n      0.49,      0.50,      0.34,      0.05,      0.51,      0.50,      0.52,      1.00,      0.00,      0.00,      0.00,      0.00,2000,\n      0.32,      0.85,      0.76,      0.73,      0.58,      0.43,      0.48,      1.01,      0.00,      0.00,      0.00,      0.00,2000,\n      0.00,      0.15,      0.69,      0.05,      0.52,      0.45,      0.41,      1.01,      0.00,      0.00,      0.00,      0.00,2000,\n      0.16,      0.00,      0.50,      0.34,      0.48,      0.59,      0.60,      1.02,      0.00,      0.00,      0.00,      0.00,2000,\n      0.22,      0.22,      0.00,      0.00,      0.48,      0.49,      0.55,      1.00,      0.00,      0.00,      0.00,      0.00,2000,\n      0.00,      0.27,      0.78,      0.00,      0.44,      0.43,      0.43,      1.01,      0.00,      0.00,      0.00,      0.00,2000,\n      0.43,      0.82,      0.90,      0.66,      0.45,      0.51,      0.57,      1.01,      0.00,      0.00,      0.00,      0.00,2000,\n      0.14,      0.00,      0.00,      0.37,      0.47,      0.51,      0.46,      1.00,      0.00,      0.00,      0.00,      0.00,2000,\n      0.50,      0.00,      0.66,      0.83,      0.48,      0.42,      0.47,      1.01,      0.00,      0.00,      0.00,      0.00,2000,\n      0.16,      0.57,      0.52,      0.62,      0.39,      0.58,      0.44,      1.02,      0.00,      0.00,      0.00,      0.00,2000,\n      0.07,      0.00,      0.01,      0.24,      0.66,      0.50,      0.42,      1.03,      0.00,      0.00,      0.00,      0.00,2000,\n      0.36,      0.68,      0.77,      0.06,      0.41,      0.44,      0.39,      1.02,      0.00,      0.00,      0.00,      0.00,2000,\n      0.21,      0.68,      0.21,      0.63,      0.55,      0.53,      0.45,      1.01,      0.00,      0.00,      0.00,      0.00,2000,\n      0.43,      0.00,      0.16,      0.34,      0.51,      0.47,      0.53,      1.00,      0.00,      0.00,      0.00,      0.00,2000,\n      0.00,      0.29,      0.10,      0.09,      0.54,      0.46,      0.62,      1.02,      0.00,      0.00,      0.00,      0.00,2000,\n      0.52,      0.76,      0.39,      0.48,      0.51,      0.33,      0.67,      1.05,      0.00,      0.00,      0.00,      0.00,2000,\n      0.29,      0.12,      0.71,      0.54,      0.44,      0.42,      0.60,      1.02,      0.00,      0.00,      0.00,      0.00,2000,\n      0.61,      0.73,      0.52,      0.55,      0.35,      0.51,      0.37,      1.04,      0.00,      0.00,      0.00,      0.00,2000,\n      0.43,      0.00,      0.00,      0.57,      0.47,      0.50,      0.50,      1.00,      0.00,      0.00,      0.00,      0.00,2000,\n      0.00,      0.68,      0.00,      0.07,      0.50,      0.55,      0.51,      1.00,      0.00,      0.00,      0.00,      0.00,2000,\n      0.29,      0.69,      0.44,      0.69,      0.53,      0.50,      0.49,      1.00,      0.00,      0.00,      0.00,      0.00,2000,\n      0.41,      0.43,      0.39,      0.73,      0.57,      0.41,      0.46,      1.01,      0.00,      0.00,      0.00,      0.00,2000,\n      0.16,      0.34,      0.63,      0.00,      0.51,      0.55,      0.53,      1.00,      0.00,      0.00,      0.00,      0.00,2000,\n      0.31,      0.00,      0.21,      0.06,      0.36,      0.53,      0.59,      1.03,      0.00,      0.00,      0.00,      0.00,2000,\n      0.41,      0.48,      0.34,      0.40,      0.59,      0.47,      0.63,      1.03,      0.00,      0.00,      0.00,      0.00,2000,\n      0.41,      0.12,      0.06,      0.00,      0.43,      0.44,      0.48,      1.01,      0.00,      0.00,      0.00,      0.00,2000,\n      0.26,      0.25,      0.01,      0.34,      0.44,      0.55,      0.58,      1.01,      0.00,      0.00,      0.00,      0.00,2000,\n      0.43,      0.00,      0.06,      0.44,      0.59,      0.48,      0.39,      1.02,      0.00,      0.00,      0.00,      0.00,2000,\n'
p1
aS'97.5%,100.0%,100.0%,100.0%,100.0%,2000,        1.00,        0.00,        0.00,        0.00,        0.00,\n97.7%,100.0%,100.0%,100.0%,100.0%,2000,        1.02,        0.00,        0.00,        0.00,        0.00,\n97.6%,100.0%,100.0%,100.0%,100.0%,2000,        1.01,        0.00,        0.00,        0.00,        0.00,\n97.6%,100.0%,100.0%,100.0%,100.0%,2000,        1.02,        0.00,        0.00,        0.00,        0.00,\n97.5%,100.0%,100.0%,100.0%,100.0%,2000,        1.00,        0.00,        0.00,        0.00,        0.00,\n97.5%,100.0%,100.0%,100.0%,100.0%,2000,        1.01,        0.00,        0.00,        0.00,        0.00,\n97.5%,100.0%,100.0%,100.0%,100.0%,2000,        1.01,        0.00,        0.00,        0.00,        0.00,\n97.5%,100.0%,100.0%,100.0%,100.0%,2000,        1.00,        0.00,        0.00,        0.00,        0.00,\n97.6%,100.0%,100.0%,100.0%,100.0%,2000,        1.02,        0.00,        0.00,        0.00,        0.00,\n97.5%,100.0%,100.0%,100.0%,100.0%,2000,        1.00,        0.00,        0.00,        0.00,        0.00,\n98.0%,100.0%,100.0%,100.0%,100.0%,2000,        1.05,        0.00,        0.00,        0.00,        0.00,\n97.5%,100.0%,100.0%,100.0%,100.0%,2000,        1.01,        0.00,        0.00,        0.00,        0.00,\n98.4%,100.0%,100.0%,100.0%,100.0%,2000,        1.09,        0.00,        0.00,        0.00,        0.00,\n97.4%,100.0%,100.0%,100.0%,100.0%,2000,        1.00,        0.00,        0.00,        0.00,        0.00,\n98.5%,100.0%,100.0%,100.0%,100.0%,2000,        1.10,        0.00,        0.00,        0.00,        0.00,\n97.5%,100.0%,100.0%,100.0%,100.0%,2000,        1.00,        0.00,        0.00,        0.00,        0.00,\n97.7%,100.0%,100.0%,100.0%,100.0%,2000,        1.02,        0.00,        0.00,        0.00,        0.00,\n97.5%,100.0%,100.0%,100.0%,100.0%,2000,        1.01,        0.00,        0.00,        0.00,        0.00,\n97.5%,100.0%,100.0%,100.0%,100.0%,2000,        1.01,        0.00,        0.00,        0.00,        0.00,\n97.6%,100.0%,100.0%,100.0%,100.0%,2000,        1.02,        0.00,        0.00,        0.00,        0.00,\n97.7%,100.0%,100.0%,100.0%,100.0%,2000,        1.02,        0.00,        0.00,        0.00,        0.00,\n97.4%,100.0%,100.0%,100.0%,100.0%,2000,        1.00,        0.00,        0.00,        0.00,        0.00,\n97.5%,100.0%,100.0%,100.0%,100.0%,2000,        1.00,        0.00,        0.00,        0.00,        0.00,\n97.5%,100.0%,100.0%,100.0%,100.0%,2000,        1.01,        0.00,        0.00,        0.00,        0.00,\n97.5%,100.0%,100.0%,100.0%,100.0%,2000,        1.01,        0.00,        0.00,        0.00,        0.00,\n97.5%,100.0%,100.0%,100.0%,100.0%,2000,        1.00,        0.00,        0.00,        0.00,        0.00,\n97.8%,100.0%,100.0%,100.0%,100.0%,2000,        1.03,        0.00,        0.00,        0.00,        0.00,\n97.5%,100.0%,100.0%,100.0%,100.0%,2000,        1.01,        0.00,        0.00,        0.00,        0.00,\n97.5%,100.0%,100.0%,100.0%,100.0%,2000,        1.00,        0.00,        0.00,        0.00,        0.00,\n97.7%,100.0%,100.0%,100.0%,100.0%,2000,        1.02,        0.00,        0.00,        0.00,        0.00,\n97.6%,100.0%,100.0%,100.0%,100.0%,2000,        1.02,        0.00,        0.00,        0.00,        0.00,\n97.5%,100.0%,100.0%,100.0%,100.0%,2000,        1.01,        0.00,        0.00,        0.00,        0.00,\n97.6%,100.0%,100.0%,100.0%,100.0%,2000,        1.01,        0.00,        0.00,        0.00,        0.00,\n97.5%,100.0%,100.0%,100.0%,100.0%,2000,        1.01,        0.00,        0.00,        0.00,        0.00,\n97.5%,100.0%,100.0%,100.0%,100.0%,2000,        1.01,        0.00,        0.00,        0.00,        0.00,\n98.1%,100.0%,100.0%,100.0%,100.0%,2000,        1.06,        0.00,        0.00,        0.00,        0.00,\n97.5%,100.0%,100.0%,100.0%,100.0%,2000,        1.00,        0.00,        0.00,        0.00,        0.00,\n97.5%,100.0%,100.0%,100.0%,100.0%,2000,        1.01,        0.00,        0.00,        0.00,        0.00,\n97.6%,100.0%,100.0%,100.0%,100.0%,2000,        1.02,        0.00,        0.00,        0.00,        0.00,\n97.5%,100.0%,100.0%,100.0%,100.0%,2000,        1.00,        0.00,        0.00,        0.00,        0.00,\n97.7%,100.0%,100.0%,100.0%,100.0%,2000,        1.03,        0.00,        0.00,        0.00,        0.00,\n97.5%,100.0%,100.0%,100.0%,100.0%,2000,        1.01,        0.00,        0.00,        0.00,        0.00,\n97.5%,100.0%,100.0%,100.0%,100.1%,2000,        1.01,        0.00,        0.00,        0.00,        0.00,\n97.4%,100.0%,100.0%,100.0%,100.0%,2000,        1.00,        0.00,        0.00,        0.00,        0.00,\n97.7%,100.0%,100.0%,100.0%,100.0%,2000,        1.03,        0.00,        0.00,        0.00,        0.00,\n97.7%,100.0%,100.0%,100.0%,100.0%,2000,        1.02,        0.00,        0.00,        0.00,        0.00,\n97.5%,100.0%,100.0%,100.0%,100.0%,2000,        1.01,        0.00,        0.00,        0.00,        0.00,\n97.6%,100.0%,100.0%,100.0%,100.0%,2000,        1.02,        0.00,        0.00,        0.00,        0.00,\n97.7%,100.0%,100.0%,100.0%,100.0%,2000,        1.03,        0.00,        0.00,        0.00,        0.00,\n97.5%,100.0%,100.0%,100.0%,100.0%,2000,        1.00,        0.00,        0.00,        0.00,        0.00,\n97.5%,100.0%,100.0%,100.0%,100.0%,2000,        1.01,        0.00,        0.00,        0.00,        0.00,\n97.5%,100.0%,100.0%,100.0%,100.0%,2000,        1.01,        0.00,        0.00,        0.00,        0.00,\n97.7%,100.0%,100.0%,100.0%,100.0%,2000,        1.02,        0.00,        0.00,        0.00,        0.00,\n97.7%,100.0%,100.0%,100.0%,100.0%,2000,        1.02,        0.00,        0.00,        0.00,        0.00,\n97.5%,100.0%,100.0%,100.0%,100.0%,2000,        1.01,        0.00,        0.00,        0.00,        0.00,\n97.5%,100.0%,100.0%,100.0%,100.0%,2000,        1.01,        0.00,        0.00,        0.00,        0.00,\n98.0%,100.0%,100.0%,100.0%,100.0%,2000,        1.05,        0.00,        0.00,        0.00,        0.00,\n97.7%,100.0%,100.0%,100.0%,100.0%,2000,        1.02,        0.00,        0.00,        0.00,        0.00,\n97.6%,100.0%,100.0%,100.0%,100.0%,2000,        1.01,        0.00,        0.00,        0.00,        0.00,\n97.5%,100.0%,100.0%,100.0%,100.0%,2000,        1.01,        0.00,        0.00,        0.00,        0.00,\n97.4%,100.0%,100.0%,100.0%,100.0%,2000,        1.00,        0.00,        0.00,        0.00,        0.00,\n97.7%,100.0%,100.0%,100.0%,100.0%,2000,        1.02,        0.00,        0.00,        0.00,        0.00,\n97.7%,100.0%,100.0%,100.0%,100.0%,2000,        1.02,        0.00,        0.00,        0.00,        0.00,\n97.5%,100.0%,100.0%,100.0%,100.0%,2000,        1.00,        0.00,        0.00,        0.00,        0.00,\n97.5%,100.0%,100.0%,100.0%,100.0%,2000,        1.01,        0.00,        0.00,        0.00,        0.00,\n97.7%,100.1%,100.0%,100.0%,100.0%,2000,        1.03,        0.00,        0.00,        0.00,        0.00,\n97.7%,100.0%,100.0%,100.0%,100.0%,2000,        1.03,        0.00,        0.00,        0.00,        0.00,\n97.6%,100.0%,100.0%,100.0%,100.0%,2000,        1.02,        0.00,        0.00,        0.00,        0.00,\n97.5%,100.0%,100.0%,100.0%,100.0%,2000,        1.00,        0.00,        0.00,        0.00,        0.00,\n97.5%,100.0%,100.0%,100.0%,100.0%,2000,        1.01,        0.00,        0.00,        0.00,        0.00,\n97.5%,100.0%,100.0%,100.0%,100.0%,2000,        1.01,        0.00,        0.00,        0.00,        0.00,\n97.9%,100.0%,100.0%,100.0%,100.0%,2000,        1.05,        0.00,        0.00,        0.00,        0.00,\n97.4%,100.0%,100.0%,100.0%,100.0%,2000,        1.00,        0.00,        0.00,        0.00,        0.00,\n97.5%,100.0%,100.0%,100.0%,100.0%,2000,        1.01,        0.00,        0.00,        0.00,        0.00,\n97.5%,100.0%,100.0%,100.0%,100.0%,2000,        1.01,        0.00,        0.00,        0.00,        0.00,\n97.6%,100.0%,100.0%,100.0%,100.0%,2000,        1.02,        0.00,        0.00,        0.00,        0.00,\n97.4%,100.0%,100.0%,100.0%,100.0%,2000,        1.00,        0.00,        0.00,        0.00,        0.00,\n97.6%,100.0%,100.0%,100.0%,100.0%,2000,        1.01,        0.00,        0.00,        0.00,        0.00,\n97.5%,100.0%,100.0%,100.0%,100.0%,2000,        1.01,        0.00,        0.00,        0.00,        0.00,\n97.5%,100.0%,100.0%,100.0%,100.0%,2000,        1.00,        0.00,        0.00,        0.00,        0.00,\n97.5%,100.0%,100.0%,100.0%,100.0%,2000,        1.01,        0.00,        0.00,        0.00,        0.00,\n97.7%,100.0%,100.0%,100.0%,100.0%,2000,        1.02,        0.00,        0.00,        0.00,        0.00,\n97.8%,100.0%,100.0%,100.0%,100.0%,2000,        1.03,        0.00,        0.00,        0.00,        0.00,\n97.7%,100.0%,100.0%,100.0%,100.0%,2000,        1.02,        0.00,        0.00,        0.00,        0.00,\n97.5%,100.0%,100.0%,100.0%,100.0%,2000,        1.01,        0.00,        0.00,        0.00,        0.00,\n97.4%,100.0%,100.0%,100.0%,100.0%,2000,        1.00,        0.00,        0.00,        0.00,        0.00,\n97.6%,100.0%,100.0%,100.0%,100.0%,2000,        1.02,        0.00,        0.00,        0.00,        0.00,\n98.0%,100.0%,100.0%,100.0%,100.0%,2000,        1.05,        0.00,        0.00,        0.00,        0.00,\n97.6%,100.0%,100.0%,100.0%,100.0%,2000,        1.02,        0.00,        0.00,        0.00,        0.00,\n97.8%,100.0%,100.0%,100.0%,100.0%,2000,        1.04,        0.00,        0.00,        0.00,        0.00,\n97.4%,100.0%,100.0%,100.0%,100.0%,2000,        1.00,        0.00,        0.00,        0.00,        0.00,\n97.4%,100.0%,100.0%,100.0%,100.0%,2000,        1.00,        0.00,        0.00,        0.00,        0.00,\n97.4%,100.0%,100.0%,100.0%,100.0%,2000,        1.00,        0.00,        0.00,        0.00,        0.00,\n97.6%,100.0%,100.0%,100.0%,100.0%,2000,        1.01,        0.00,        0.00,        0.00,        0.00,\n97.5%,100.0%,100.0%,100.0%,100.0%,2000,        1.00,        0.00,        0.00,        0.00,        0.00,\n97.7%,100.0%,100.0%,100.0%,100.0%,2000,        1.03,        0.00,        0.00,        0.00,        0.00,\n97.7%,100.0%,100.0%,100.0%,100.0%,2000,        1.03,        0.00,        0.00,        0.00,        0.00,\n97.5%,100.0%,100.0%,100.0%,100.0%,2000,        1.01,        0.00,        0.00,        0.00,        0.00,\n97.6%,100.0%,100.0%,100.0%,100.0%,2000,        1.01,        0.00,        0.00,        0.00,        0.00,\n97.6%,100.0%,100.0%,100.0%,100.0%,2000,        1.02,        0.00,        0.00,        0.00,        0.00,\n'
p2
aS'100,DTLZ4_7_5-p100-d7-o5,DE,2000,      1.00,      0.00,      0.00,      0.00,      0.00,      0.96,      0.00,0.627189159393\n'
p3
aS'100,DTLZ4_7_5-p100-d7-o5,DE,2000,      1.00,      0.00,      0.00,      0.00,      0.00,      0.96,      0.00,0.627189159393\n'
p4
aS"<Run id = '1'>\n<Summary>\n<NumEvals>2000</NumEvals>\n<RunTime>0.627189159393</RunTime>\n<IBD>0.959723271187</IBD>\n<IBS>0.00347737787619</IBS>\n<f1>1.00049858975</f1>\n<f2>1.84131192679e-133</f2>\n<f3>7.24726219442e-47</f3>\n<f4>2.82296180579e-30</f4>\n<f5>2.65926784104e-31</f5>\n</Summary></Run>\n"
p5
a.