(lp0
S'      0.44,      0.46,      0.48,      0.02,      0.59,      0.50,      0.50,      1.01,      0.00,      0.00,      0.00,      0.00,186,\n      0.10,      0.45,      0.58,      0.11,      0.79,      0.94,      0.41,      1.29,      0.00,      0.00,      0.00,      0.00,186,\n      0.24,      0.40,      0.03,      0.18,      0.06,      0.72,      0.22,      1.32,      0.00,      0.00,      0.00,      0.00,186,\n      0.47,      1.00,      0.26,      1.00,      1.00,      1.00,      0.31,      1.32,      0.00,      0.00,      0.00,      0.00,186,\n'
p1
aS'97.5%,100.0%,100.0%,100.0%,100.0%,186,        1.01,        0.00,        0.00,        0.00,        0.00,\n100.6%,100.0%,100.0%,100.0%,100.0%,186,        1.29,        0.00,        0.00,        0.00,        0.00,\n100.9%,100.0%,100.0%,100.0%,100.0%,186,        1.32,        0.00,        0.00,        0.00,        0.00,\n101.0%,100.0%,100.0%,100.0%,100.0%,186,        1.32,        0.00,        0.00,        0.00,        0.00,\n'
p2
aS'100,DTLZ4_7_5-p100-d7-o5,GALE,186,      1.01,      0.00,      0.00,      0.00,      0.00,      1.01,      0.01,3.59894418716\n'
p3
aS'100,DTLZ4_7_5-p100-d7-o5,GALE,186,      1.01,      0.00,      0.00,      0.00,      0.00,      1.01,      0.01,3.59894418716\n'
p4
aS"<Run id = '3'>\n<Summary>\n<NumEvals>186</NumEvals>\n<RunTime>3.59894418716</RunTime>\n<IBD>1.00871461238</IBD>\n<IBS>0.0123910084459</IBS>\n<f1>1.0083903752</f1>\n<f2>2.41409627503e-171</f2>\n<f3>8.90545599843e-33</f3>\n<f4>5.05889292903e-34</f4>\n<f5>2.52246305578e-36</f5>\n</Summary></Run>\n"
p5
a.