(lp0
(ijmoo_core
JMOO
p1
(dp2
S'tests'
p3
(ijmoo_core
jmoo_test
p4
(dp5
S'algorithms'
p6
(lp7
(ijmoo_algorithms
jmoo_DE
p8
(dp9
S'name'
p10
S'DE'
p11
sS'color'
p12
S'magenta'
p13
sS'adjustor'
p14
cAlgorithms.DE.de_components
de_mutate
p15
sS'recombiner'
p16
cAlgorithms.DE.de_components
de_recombine
p17
sS'selector'
p18
cAlgorithms.DE.de_components
de_selector
p19
sS'initializer'
p20
NsS'type'
p21
S'*'
p22
sba(ijmoo_algorithms
jmoo_NSGAIII
p23
(dp24
g10
S'NSGA3'
p25
sg12
S'green'
p26
sg14
cAlgorithms.NSGAIII.nsgaiii_components
nsgaiii_regenerate2
p27
sg16
cAlgorithms.NSGAIII.nsgaiii_components
nsgaiii_recombine2
p28
sg18
cAlgorithms.NSGAIII.nsgaiii_components
nsgaiii_selector2
p29
sg20
Nsg21
g22
sbasS'problems'
p30
(lp31
ccopy_reg
_reconstructor
p32
(cProblems.Feature_Models.feature_model
FeatureTreeModel
p33
c__builtin__
object
p34
Ntp35
Rp36
(dp37
S'ft'
p38
g32
(cProblems.Feature_Models.Feature_tree
FeatureTree
p39
g34
Ntp40
Rp41
(dp42
S'features'
p43
(lp44
g32
(cProblems.Feature_Models.Feature_tree
Node
p45
g34
Ntp46
Rp47
(dp48
S'node_type'
p49
S'r'
p50
sS'id'
p51
S'web_portal'
p52
sS'parent'
p53
NsS'children'
p54
(lp55
g32
(g45
g34
Ntp56
Rp57
(dp58
g49
S'o'
p59
sg51
S'add_services'
p60
sg53
g47
sg54
(lp61
g32
(g45
g34
Ntp62
Rp63
(dp64
g49
g59
sg51
S'site_stats'
p65
sg53
g57
sg54
(lp66
g32
(g45
g34
Ntp67
Rp68
(dp69
g49
S'm'
p70
sg51
S'basic'
p71
sg53
g63
sg54
(lp72
sbag32
(g45
g34
Ntp73
Rp74
(dp75
g49
g59
sg51
S'advanced'
p76
sg53
g63
sg54
(lp77
sbasbag32
(g45
g34
Ntp78
Rp79
(dp80
g49
g59
sg51
S'site_search'
p81
sg53
g57
sg54
(lp82
g32
(g45
g34
Ntp83
Rp84
(dp85
g49
g59
sg51
S'images'
p86
sg53
g79
sg54
(lp87
sbag32
(g45
g34
Ntp88
Rp89
(dp90
g49
g59
sg51
S'text'
p91
sg53
g79
sg54
(lp92
g32
(g45
g34
Ntp93
Rp94
(dp95
g49
g70
sg51
S'html'
p96
sg53
g89
sg54
(lp97
sbag32
(g45
g34
Ntp98
Rp99
(dp100
g49
g59
sg51
S'dynamic'
p101
sg53
g89
sg54
(lp102
sbasbasbag32
(g45
g34
Ntp103
Rp104
(dp105
g49
g59
sg51
S'ad_server'
p106
sg53
g57
sg54
(lp107
g32
(g45
g34
Ntp108
Rp109
(dp110
g49
g70
sg51
S'reports'
p111
sg53
g104
sg54
(lp112
sbag32
(g45
g34
Ntp113
Rp114
(dp115
g49
g59
sg51
S'popups'
p116
sg53
g104
sg54
(lp117
sbag32
(g45
g34
Ntp118
Rp119
(dp120
g49
g70
sg51
S'banners'
p121
sg53
g104
sg54
(lp122
g32
(g45
g34
Ntp123
Rp124
(dp125
g49
g70
sg51
S'ban_img'
p126
sg53
g119
sg54
(lp127
sbag32
(g45
g34
Ntp128
Rp129
(dp130
g49
g59
sg51
S'ban_flash'
p131
sg53
g119
sg54
(lp132
sbasbag32
(g45
g34
Ntp133
Rp134
(dp135
g49
g59
sg51
S'keyword'
p136
sg53
g104
sg54
(lp137
sbasbasbag32
(g45
g34
Ntp138
Rp139
(dp140
g49
g70
sg51
S'web_server'
p141
sg53
g47
sg54
(lp142
g32
(g45
g34
Ntp143
Rp144
(dp145
g49
g59
sg51
S'logging'
p146
sg53
g139
sg54
(lp147
g32
(g45
g34
Ntp148
Rp149
(dp150
g53
g144
sS'g_u'
p151
I1
sg54
(lp152
g32
(g45
g34
Ntp153
Rp154
(dp155
g49
S''
p156
sg51
S'db'
p157
sg53
g149
sg54
(lp158
sbag32
(g45
g34
Ntp159
Rp160
(dp161
g49
g156
sg51
S'file'
p162
sg53
g149
sg54
(lp163
sbasg49
S'g'
p164
sS'g_d'
p165
I1
sg51
S'_id_0'
p166
sbasbag32
(g45
g34
Ntp167
Rp168
(dp169
g49
g59
sg51
S'protocol'
p170
sg53
g139
sg54
(lp171
g32
(g45
g34
Ntp172
Rp173
(dp174
g53
g168
sg151
I3
sg54
(lp175
g32
(g45
g34
Ntp176
Rp177
(dp178
g49
g156
sg51
S'nttp'
p179
sg53
g173
sg54
(lp180
sbag32
(g45
g34
Ntp181
Rp182
(dp183
g49
g156
sg51
S'ftp'
p184
sg53
g173
sg54
(lp185
sbag32
(g45
g34
Ntp186
Rp187
(dp188
g49
g156
sg51
S'https'
p189
sg53
g173
sg54
(lp190
sbasg49
g164
sg165
I1
sg51
S'_id_1'
p191
sbasbag32
(g45
g34
Ntp192
Rp193
(dp194
g49
g70
sg51
S'cont'
p195
sg53
g139
sg54
(lp196
g32
(g45
g34
Ntp197
Rp198
(dp199
g49
g70
sg51
S'static'
p200
sg53
g193
sg54
(lp201
sbag32
(g45
g34
Ntp202
Rp203
(dp204
g49
g59
sg51
S'active'
p205
sg53
g193
sg54
(lp206
g32
(g45
g34
Ntp207
Rp208
(dp209
g53
g203
sg151
I4
sg54
(lp210
g32
(g45
g34
Ntp211
Rp212
(dp213
g49
g156
sg51
S'asp'
p214
sg53
g208
sg54
(lp215
sbag32
(g45
g34
Ntp216
Rp217
(dp218
g49
g156
sg51
S'php'
p219
sg53
g208
sg54
(lp220
sbag32
(g45
g34
Ntp221
Rp222
(dp223
g49
g156
sg51
S'jsp'
p224
sg53
g208
sg54
(lp225
sbag32
(g45
g34
Ntp226
Rp227
(dp228
g49
g156
sg51
S'cgi'
p229
sg53
g208
sg54
(lp230
sbasg49
g164
sg165
I1
sg51
S'_id_2'
p231
sbasbasbasbag32
(g45
g34
Ntp232
Rp233
(dp234
g49
g59
sg51
S'persistence'
p235
sg53
g47
sg54
(lp236
g32
(g45
g34
Ntp237
Rp238
(dp239
g53
g233
sg151
I1
sg54
(lp240
g32
(g45
g34
Ntp241
Rp242
(dp243
g49
g156
sg51
S'xml'
p244
sg53
g238
sg54
(lp245
sbag32
(g45
g34
Ntp246
Rp247
(dp248
g49
g156
sg51
S'database'
p249
sg53
g238
sg54
(lp250
sbasg49
g164
sg165
I1
sg51
S'_id_3'
p251
sbasbag32
(g45
g34
Ntp252
Rp253
(dp254
g49
g59
sg51
S'ri'
p255
sg53
g47
sg54
(lp256
g32
(g45
g34
Ntp257
Rp258
(dp259
g53
g253
sg151
I3
sg54
(lp260
g32
(g45
g34
Ntp261
Rp262
(dp263
g49
g156
sg51
S'data_storage'
p264
sg53
g258
sg54
(lp265
sbag32
(g45
g34
Ntp266
Rp267
(dp268
g49
g156
sg51
S'data_transfer'
p269
sg53
g258
sg54
(lp270
sbag32
(g45
g34
Ntp271
Rp272
(dp273
g49
g156
sg51
S'user_auth'
p274
sg53
g258
sg54
(lp275
sbasg49
g164
sg165
I1
sg51
S'_id_4'
p276
sbasbag32
(g45
g34
Ntp277
Rp278
(dp279
g49
g59
sg51
S'performance'
p280
sg53
g47
sg54
(lp281
g32
(g45
g34
Ntp282
Rp283
(dp284
g53
g278
sg151
I1
sg54
(lp285
g32
(g45
g34
Ntp286
Rp287
(dp288
g49
g156
sg51
S'ms'
p289
sg53
g283
sg54
(lp290
sbag32
(g45
g34
Ntp291
Rp292
(dp293
g49
g156
sg51
S'sec'
p294
sg53
g283
sg54
(lp295
sbag32
(g45
g34
Ntp296
Rp297
(dp298
g49
g156
sg51
S'min'
p299
sg53
g283
sg54
(lp300
sbasg49
g164
sg165
I1
sg51
S'_id_5'
p301
sbasbasbag57
ag63
ag68
ag74
ag79
ag84
ag89
ag94
ag99
ag104
ag109
ag114
ag119
ag124
ag129
ag134
ag139
ag144
ag149
ag154
ag160
ag168
ag173
ag177
ag182
ag187
ag193
ag198
ag203
ag208
ag212
ag217
ag222
ag227
ag233
ag238
ag242
ag247
ag253
ag258
ag262
ag267
ag272
ag278
ag283
ag287
ag292
ag297
asS'featureNum'
p302
I49
sS'leaves'
p303
(lp304
g68
ag74
ag84
ag94
ag99
ag109
ag114
ag124
ag129
ag134
ag154
ag160
ag177
ag182
ag187
ag198
ag212
ag217
ag222
ag227
ag242
ag247
ag262
ag267
ag272
ag287
ag292
ag297
asS'cost'
p305
(lp306
F0.4141673071776344
aF0.5350746064455542
aF0.8727715107611997
aF0.10217479662873563
aF0.8562878126254198
aF0.5795365312844245
aF0.9131906377417947
aF0.20931025637632095
aF0.8145335744336977
aF0.21043308805101268
aF0.6570870978795744
aF0.47603096641818377
aF0.6699390419438591
aF0.9663229159506571
aF0.7407964262457459
aF0.7634362430101036
aF0.6940088624754145
aF0.3638550679632463
aF0.44764906337969324
aF0.3538149918598018
aF0.3831777566178216
aF0.7516689466580329
aF0.2380461037408177
aF0.3995241236685726
aF0.9810538549844965
aF0.6300030396621357
aF0.28687951938342227
aF0.1971388640574132
aF0.628497133850557
aF0.6978899650109257
aF0.5738388187650401
aF0.8300862702246247
aF0.5979080090661882
aF0.6304399362239476
aF0.02997901673619363
aF0.1379310247040051
aF0.47141542478160303
aF0.2581383271280667
aF0.2863936781094517
aF0.23141720500857998
aF0.18585104746586567
aF0.4671009036951903
aF0.007826378736969564
aF0.4114517460778515
aF0.30930538443011624
aF0.7781623909099297
aF0.6082547142063938
aF0.7612258805968384
aF0.5550460782178172
asS'groups'
p307
(lp308
g149
ag173
ag208
ag238
ag258
ag283
asS'root'
p309
g47
sS'constraints'
p310
(lp311
g32
(cProblems.Feature_Models.Feature_tree
Constraint
p312
g34
Ntp313
Rp314
(dp315
S'li_pos'
p316
(lp317
I00
aI01
asS'literals'
p318
(lp319
S'data_transfer'
p320
aS'https'
p321
asg51
S'C4'
p322
sbag32
(g312
g34
Ntp323
Rp324
(dp325
g316
(lp326
I00
aI01
asg318
(lp327
S'db'
p328
aS'database'
p329
asg51
S'C3'
p330
sbag32
(g312
g34
Ntp331
Rp332
(dp333
g316
(lp334
I00
aI00
asg318
(lp335
S'https'
p336
aS'ms'
p337
asg51
S'C6'
p338
sbag32
(g312
g34
Ntp339
Rp340
(dp341
g316
(lp342
I00
aI01
asg318
(lp343
S'file'
p344
aS'ftp'
p345
asg51
S'C5'
p346
sbag32
(g312
g34
Ntp347
Rp348
(dp349
g316
(lp350
I00
aI01
asg318
(lp351
S'keyword'
p352
aS'text'
p353
asg51
S'C1'
p354
sbag32
(g312
g34
Ntp355
Rp356
(dp357
g316
(lp358
I00
aI01
asg318
(lp359
S'dynamic'
p360
aS'active'
p361
asg51
S'C2'
p362
sbasbsg10
S'Web_Portal'
p363
sS'url'
p364
S'./Problems/Feature_Models/References/Web_Portal.xml'
p365
sS'decisions'
p366
(lp367
(ijmoo_decision
jmoo_decision
p368
(dp369
S'up'
p370
I1
sg10
S'x0'
p371
sS'low'
p372
I0
sba(ijmoo_decision
jmoo_decision
p373
(dp374
g370
I1
sg10
S'x1'
p375
sg372
I0
sba(ijmoo_decision
jmoo_decision
p376
(dp377
g370
I1
sg10
S'x2'
p378
sg372
I0
sba(ijmoo_decision
jmoo_decision
p379
(dp380
g370
I1
sg10
S'x3'
p381
sg372
I0
sba(ijmoo_decision
jmoo_decision
p382
(dp383
g370
I1
sg10
S'x4'
p384
sg372
I0
sba(ijmoo_decision
jmoo_decision
p385
(dp386
g370
I1
sg10
S'x5'
p387
sg372
I0
sba(ijmoo_decision
jmoo_decision
p388
(dp389
g370
I1
sg10
S'x6'
p390
sg372
I0
sba(ijmoo_decision
jmoo_decision
p391
(dp392
g370
I1
sg10
S'x7'
p393
sg372
I0
sba(ijmoo_decision
jmoo_decision
p394
(dp395
g370
I1
sg10
S'x8'
p396
sg372
I0
sba(ijmoo_decision
jmoo_decision
p397
(dp398
g370
I1
sg10
S'x9'
p399
sg372
I0
sba(ijmoo_decision
jmoo_decision
p400
(dp401
g370
I1
sg10
S'x10'
p402
sg372
I0
sba(ijmoo_decision
jmoo_decision
p403
(dp404
g370
I1
sg10
S'x11'
p405
sg372
I0
sba(ijmoo_decision
jmoo_decision
p406
(dp407
g370
I1
sg10
S'x12'
p408
sg372
I0
sba(ijmoo_decision
jmoo_decision
p409
(dp410
g370
I1
sg10
S'x13'
p411
sg372
I0
sba(ijmoo_decision
jmoo_decision
p412
(dp413
g370
I1
sg10
S'x14'
p414
sg372
I0
sba(ijmoo_decision
jmoo_decision
p415
(dp416
g370
I1
sg10
S'x15'
p417
sg372
I0
sba(ijmoo_decision
jmoo_decision
p418
(dp419
g370
I1
sg10
S'x16'
p420
sg372
I0
sba(ijmoo_decision
jmoo_decision
p421
(dp422
g370
I1
sg10
S'x17'
p423
sg372
I0
sba(ijmoo_decision
jmoo_decision
p424
(dp425
g370
I1
sg10
S'x18'
p426
sg372
I0
sba(ijmoo_decision
jmoo_decision
p427
(dp428
g370
I1
sg10
S'x19'
p429
sg372
I0
sba(ijmoo_decision
jmoo_decision
p430
(dp431
g370
I1
sg10
S'x20'
p432
sg372
I0
sba(ijmoo_decision
jmoo_decision
p433
(dp434
g370
I1
sg10
S'x21'
p435
sg372
I0
sba(ijmoo_decision
jmoo_decision
p436
(dp437
g370
I1
sg10
S'x22'
p438
sg372
I0
sba(ijmoo_decision
jmoo_decision
p439
(dp440
g370
I1
sg10
S'x23'
p441
sg372
I0
sba(ijmoo_decision
jmoo_decision
p442
(dp443
g370
I1
sg10
S'x24'
p444
sg372
I0
sba(ijmoo_decision
jmoo_decision
p445
(dp446
g370
I1
sg10
S'x25'
p447
sg372
I0
sba(ijmoo_decision
jmoo_decision
p448
(dp449
g370
I1
sg10
S'x26'
p450
sg372
I0
sba(ijmoo_decision
jmoo_decision
p451
(dp452
g370
I1
sg10
S'x27'
p453
sg372
I0
sbasS'objectives'
p454
(lp455
(ijmoo_objective
jmoo_objective
p456
(dp457
S'lismore'
p458
I01
sg370
Nsg10
S'number_of_features'
p459
sg372
Nsba(ijmoo_objective
jmoo_objective
p460
(dp461
g458
I01
sg370
Nsg10
S'constrained_violated'
p462
sg372
Nsba(ijmoo_objective
jmoo_objective
p463
(dp464
g458
I01
sg370
Nsg10
g305
sg372
NsbasS'valid_solutions'
p465
I01
sbag32
(g33
g34
Ntp466
Rp467
(dp468
g38
g32
(g39
g34
Ntp469
Rp470
(dp471
g43
(lp472
g32
(g45
g34
Ntp473
Rp474
(dp475
g49
g50
sg51
S'software'
p476
sg53
Nsg54
(lp477
g32
(g45
g34
Ntp478
Rp479
(dp480
g49
g70
sg51
S'calls'
p481
sg53
g474
sg54
(lp482
sbag32
(g45
g34
Ntp483
Rp484
(dp485
g49
g70
sg51
S'screen'
p486
sg53
g474
sg54
(lp487
g32
(g45
g34
Ntp488
Rp489
(dp490
g53
g484
sg151
I1
sg54
(lp491
g32
(g45
g34
Ntp492
Rp493
(dp494
g49
g156
sg51
S'basic'
p495
sg53
g489
sg54
(lp496
sbag32
(g45
g34
Ntp497
Rp498
(dp499
g49
g156
sg51
S'color'
p500
sg53
g489
sg54
(lp501
sbag32
(g45
g34
Ntp502
Rp503
(dp504
g49
g156
sg51
S'highRes'
p505
sg53
g489
sg54
(lp506
sbasg49
g164
sg165
I1
sg51
S'_r_2_5'
p507
sbasbag32
(g45
g34
Ntp508
Rp509
(dp510
g49
g59
sg51
S'media'
p511
sg53
g474
sg54
(lp512
g32
(g45
g34
Ntp513
Rp514
(dp515
g53
g509
sg151
I2
sg54
(lp516
g32
(g45
g34
Ntp517
Rp518
(dp519
g49
g156
sg51
S'camera'
p520
sg53
g514
sg54
(lp521
sbag32
(g45
g34
Ntp522
Rp523
(dp524
g49
g156
sg51
S'mp3'
p525
sg53
g514
sg54
(lp526
sbasg49
g164
sg165
I1
sg51
S'_r_3_9'
p527
sbasbag32
(g45
g34
Ntp528
Rp529
(dp530
g49
g59
sg51
S'gps'
p531
sg53
g474
sg54
(lp532
sbasbag479
ag484
ag489
ag493
ag498
ag503
ag509
ag514
ag518
ag523
ag529
asg302
I12
sg303
(lp533
g479
ag493
ag498
ag503
ag518
ag523
ag529
asg305
(lp534
F0.09911534909037778
aF0.6996705550288208
aF0.3076599345464842
aF0.7386616673310067
aF0.15081455156965518
aF0.5629725377997659
aF0.6196196642151593
aF0.7794122078025616
aF0.9751747142232923
aF0.8667191696249834
aF0.863537588901612
aF0.37408959851382984
asg307
(lp535
g489
ag514
asg309
g474
sg310
(lp536
g32
(g312
g34
Ntp537
Rp538
(dp539
g316
(lp540
I01
aI00
asg318
(lp541
S'highRes'
p542
aS'camera'
p543
asg51
S'constraint_2'
p544
sbag32
(g312
g34
Ntp545
Rp546
(dp547
g316
(lp548
I00
aI00
asg318
(lp549
S'gps'
p550
aS'basic'
p551
asg51
S'constraint_3'
p552
sbasbsg10
S'cellphone'
p553
sg364
S'./Problems/Feature_Models/References/cellphone.xml'
p554
sg366
(lp555
(ijmoo_decision
jmoo_decision
p556
(dp557
g370
I1
sg10
S'x0'
p558
sg372
I0
sba(ijmoo_decision
jmoo_decision
p559
(dp560
g370
I1
sg10
S'x1'
p561
sg372
I0
sba(ijmoo_decision
jmoo_decision
p562
(dp563
g370
I1
sg10
S'x2'
p564
sg372
I0
sba(ijmoo_decision
jmoo_decision
p565
(dp566
g370
I1
sg10
S'x3'
p567
sg372
I0
sba(ijmoo_decision
jmoo_decision
p568
(dp569
g370
I1
sg10
S'x4'
p570
sg372
I0
sba(ijmoo_decision
jmoo_decision
p571
(dp572
g370
I1
sg10
S'x5'
p573
sg372
I0
sba(ijmoo_decision
jmoo_decision
p574
(dp575
g370
I1
sg10
S'x6'
p576
sg372
I0
sbasg454
(lp577
(ijmoo_objective
jmoo_objective
p578
(dp579
g458
I01
sg370
Nsg10
g459
sg372
Nsba(ijmoo_objective
jmoo_objective
p580
(dp581
g458
I01
sg370
Nsg10
g462
sg372
Nsba(ijmoo_objective
jmoo_objective
p582
(dp583
g458
I01
sg370
Nsg10
g305
sg372
Nsbasg465
I01
sbasbsS'reports'
p584
(lp585
sS'configurations'
p586
(dp587
S'MOEAD'
p588
(dp589
S'Theta'
p590
I5
sS'ETA_C_DEFAULT_'
p591
I20
sS'niche'
p592
I20
sS'SBX_Probability'
p593
I1
sS'ETA_M_DEFAULT_'
p594
I20
ssS'Universal'
p595
(dp596
S'Repeats'
p597
I3
sS'Population_Size'
p598
I92
sS'No_of_Generations'
p599
I20
ssg11
(dp600
S'CF'
p601
F0.3
sS'F'
p602
F0.75
ssS'GALE'
p603
(dp604
S'EPSILON'
p605
F1.0
sS'DELTA'
p606
I3
sS'GAMMA'
p607
F0.15
sS'LAMBDA'
p608
I3
ssS'STORM'
p609
(dp610
g602
F0.75
sg601
F0.3
sS'STORM_POLES'
p611
I20
sS'STORM_EXPLOSION'
p612
I5
sS'STORM_SPLIT'
p613
I6
sg607
F0.15
ssS'NSGAIII'
p614
(dp615
g591
I30
sg593
I1
sg594
I20
sssbag156
a.